	.file	"app.c"
	.text
.Ltext0:
	.cfi_sections	.debug_frame
	.def	snprintf;	.scl	3;	.type	32;	.endef
	.seh_proc	snprintf
snprintf:
.LFB5:
	.file 1 "C:/mingw64/x86_64-w64-mingw32/include/stdio.h"
	.loc 1 787 1
	.cfi_startproc
	pushq	%rbp
	.seh_pushreg	%rbp
	.cfi_def_cfa_offset 16
	.cfi_offset 6, -16
	movq	%rsp, %rbp
	.seh_setframe	%rbp, 0
	.cfi_def_cfa_register 6
	subq	$48, %rsp
	.seh_stackalloc	48
	.seh_endprologue
	movq	%rcx, 16(%rbp)
	movq	%rdx, 24(%rbp)
	movq	%r8, 32(%rbp)
	movq	%r9, 40(%rbp)
	.loc 1 789 35
	leaq	40(%rbp), %rax
	movq	%rax, -16(%rbp)
	.loc 1 790 14
	movq	-16(%rbp), %rcx
	movq	32(%rbp), %rdx
	movq	24(%rbp), %rax
	movq	%rcx, %r9
	movq	%rdx, %r8
	movq	%rax, %rdx
	movq	16(%rbp), %rcx
	call	__ms_vsnprintf
	movl	%eax, -4(%rbp)
	.loc 1 792 10
	movl	-4(%rbp), %eax
	.loc 1 793 1
	addq	$48, %rsp
	popq	%rbp
	.cfi_restore 6
	.cfi_def_cfa 7, 8
	ret
	.cfi_endproc
.LFE5:
	.seh_endproc
.lcomm g_container,8,8
.lcomm g_iface,8,8
	.data
	.align 32
g_current_file:
	.ascii "data/records.csv\0"
	.space 239
	.section .rdata,"dr"
	.align 8
.LC0:
	.ascii "\12========================================\12\0"
	.align 8
.LC1:
	.ascii "  \346\240\241\345\233\255\351\200\211\350\257\276\350\256\260\345\275\225\346\243\200\347\264\242\344\270\216\345\210\206\346\236\220\347\263\273\347\273\237\12\0"
	.align 8
.LC2:
	.ascii "  \346\225\260\346\215\256\347\273\223\346\236\204\344\270\216\347\256\227\346\263\225\350\257\276\347\250\213\350\256\276\350\256\241\12\0"
	.align 8
.LC3:
	.ascii "========================================\12\0"
	.align 8
.LC4:
	.ascii "\350\257\273\345\217\226\350\276\223\345\205\245\345\244\261\350\264\245\357\274\214\347\250\213\345\272\217\351\200\200\345\207\272\343\200\202\12\0"
.LC5:
	.ascii "\350\257\267\350\276\223\345\205\245\346\234\211\346\225\210\351\200\211\351\241\271\343\200\202\12\0"
.LC6:
	.ascii "\346\204\237\350\260\242\344\275\277\347\224\250\357\274\214\345\206\215\350\247\201\357\274\201\12\0"
	.align 8
.LC7:
	.ascii "\346\227\240\346\225\210\351\200\211\351\241\271\357\274\214\350\257\267\351\207\215\346\226\260\350\276\223\345\205\245\343\200\202\12\0"
	.text
	.globl	run_app
	.def	run_app;	.scl	2;	.type	32;	.endef
	.seh_proc	run_app
run_app:
.LFB4286:
	.file 2 "src/app.c"
	.loc 2 38 20
	.cfi_startproc
	pushq	%rbp
	.seh_pushreg	%rbp
	.cfi_def_cfa_offset 16
	.cfi_offset 6, -16
	movq	%rsp, %rbp
	.seh_setframe	%rbp, 0
	.cfi_def_cfa_register 6
	subq	$80, %rsp
	.seh_stackalloc	80
	.seh_endprologue
	.loc 2 41 5
	leaq	.LC0(%rip), %rcx
	call	print_utf8_printf
	.loc 2 42 5
	leaq	.LC1(%rip), %rcx
	call	print_utf8_printf
	.loc 2 43 5
	leaq	.LC2(%rip), %rcx
	call	print_utf8_printf
	.loc 2 44 5
	leaq	.LC3(%rip), %rcx
	call	print_utf8_printf
.L24:
.LBB2:
	.loc 2 47 9
	call	display_main_menu
	.loc 2 49 14
	leaq	-48(%rbp), %rax
	movl	$32, %edx
	movq	%rax, %rcx
	call	read_line
	.loc 2 49 13
	xorl	$1, %eax
	.loc 2 49 12
	testb	%al, %al
	je	.L4
	.loc 2 50 13
	leaq	.LC4(%rip), %rcx
	call	print_utf8_printf
	jmp	.L3
.L4:
	.loc 2 53 23
	movzbl	-48(%rbp), %eax
	.loc 2 53 12
	testb	%al, %al
	jne	.L6
	.loc 2 54 13
	leaq	.LC5(%rip), %rcx
	call	print_utf8_printf
	jmp	.L24
.L6:
	.loc 2 57 18
	leaq	-48(%rbp), %rax
	movq	%rax, %rcx
	call	atoi
	movl	%eax, -4(%rbp)
	.loc 2 59 9
	cmpl	$11, -4(%rbp)
	ja	.L8
	movl	-4(%rbp), %eax
	leaq	0(,%rax,4), %rdx
	leaq	.L10(%rip), %rax
	movl	(%rdx,%rax), %eax
	cltq
	leaq	.L10(%rip), %rdx
	addq	%rdx, %rax
	jmp	*%rax
	.section .rdata,"dr"
	.align 4
.L10:
	.long	.L21-.L10
	.long	.L20-.L10
	.long	.L19-.L10
	.long	.L18-.L10
	.long	.L17-.L10
	.long	.L16-.L10
	.long	.L15-.L10
	.long	.L14-.L10
	.long	.L13-.L10
	.long	.L12-.L10
	.long	.L11-.L10
	.long	.L9-.L10
	.text
.L20:
	.loc 2 60 21
	call	select_data_structure
	.loc 2 60 13
	jmp	.L7
.L19:
	.loc 2 61 21
	call	load_data
	.loc 2 61 13
	jmp	.L7
.L18:
	.loc 2 62 21
	call	save_data
	.loc 2 62 13
	jmp	.L7
.L17:
	.loc 2 63 21
	call	insert_record
	.loc 2 63 13
	jmp	.L7
.L16:
	.loc 2 64 21
	call	delete_record
	.loc 2 64 13
	jmp	.L7
.L15:
	.loc 2 65 21
	call	find_record
	.loc 2 65 13
	jmp	.L7
.L14:
	.loc 2 66 21
	call	filter_and_sort
	.loc 2 66 13
	jmp	.L7
.L13:
	.loc 2 67 21
	call	statistics_menu
	.loc 2 67 13
	jmp	.L7
.L12:
	.loc 2 68 21
	call	delete_expired
	.loc 2 68 13
	jmp	.L7
.L11:
	.loc 2 69 22
	call	performance_menu
	.loc 2 69 13
	jmp	.L7
.L9:
	.loc 2 70 22
	call	generate_data_menu
	.loc 2 70 13
	jmp	.L7
.L21:
	.loc 2 72 21
	movq	g_container(%rip), %rax
	.loc 2 72 20
	testq	%rax, %rax
	je	.L23
	.loc 2 72 33 discriminator 1
	movq	g_iface(%rip), %rax
	testq	%rax, %rax
	je	.L23
	.loc 2 73 28
	movq	g_iface(%rip), %rax
	movq	8(%rax), %rax
	.loc 2 73 21
	movq	g_container(%rip), %rdx
	movq	%rdx, %rcx
	call	*%rax
.LVL0:
.L23:
	.loc 2 75 17
	leaq	.LC6(%rip), %rcx
	call	print_utf8_printf
	jmp	.L3
.L8:
	.loc 2 78 17
	leaq	.LC7(%rip), %rcx
	call	print_utf8_printf
.L7:
.LBE2:
	.loc 2 46 15 discriminator 1
	jmp	.L24
.L3:
	.loc 2 81 1
	addq	$80, %rsp
	popq	%rbp
	.cfi_restore 6
	.cfi_def_cfa 7, 8
	ret
	.cfi_endproc
.LFE4286:
	.seh_endproc
	.def	trim_whitespace;	.scl	3;	.type	32;	.endef
	.seh_proc	trim_whitespace
trim_whitespace:
.LFB4287:
	.loc 2 83 43
	.cfi_startproc
	pushq	%rbp
	.seh_pushreg	%rbp
	.cfi_def_cfa_offset 16
	.cfi_offset 6, -16
	movq	%rsp, %rbp
	.seh_setframe	%rbp, 0
	.cfi_def_cfa_register 6
	subq	$64, %rsp
	.seh_stackalloc	64
	.seh_endprologue
	movq	%rcx, 16(%rbp)
	.loc 2 84 8
	cmpq	$0, 16(%rbp)
	je	.L34
	.loc 2 85 11
	movq	16(%rbp), %rax
	movq	%rax, -8(%rbp)
	.loc 2 86 11
	jmp	.L28
.L30:
	.loc 2 87 14
	addq	$1, -8(%rbp)
.L28:
	.loc 2 86 12
	movq	-8(%rbp), %rax
	movzbl	(%rax), %eax
	.loc 2 86 11
	testb	%al, %al
	je	.L29
	.loc 2 86 45 discriminator 1
	movq	-8(%rbp), %rax
	movzbl	(%rax), %eax
	.loc 2 86 22 discriminator 1
	movzbl	%al, %eax
	movl	%eax, %ecx
	movq	__imp_isspace(%rip), %rax
	call	*%rax
.LVL1:
	.loc 2 86 19 discriminator 1
	testl	%eax, %eax
	jne	.L30
.L29:
	.loc 2 89 26
	movq	16(%rbp), %rcx
	call	strlen
	movq	%rax, %rdx
	.loc 2 89 11
	movq	16(%rbp), %rax
	addq	%rdx, %rax
	movq	%rax, -16(%rbp)
	.loc 2 90 11
	jmp	.L31
.L33:
	.loc 2 91 12
	subq	$1, -16(%rbp)
.L31:
	.loc 2 90 11
	movq	-16(%rbp), %rax
	cmpq	-8(%rbp), %rax
	jbe	.L32
	.loc 2 90 56 discriminator 1
	movq	-16(%rbp), %rax
	subq	$1, %rax
	.loc 2 90 50 discriminator 1
	movzbl	(%rax), %eax
	.loc 2 90 27 discriminator 1
	movzbl	%al, %eax
	movl	%eax, %ecx
	movq	__imp_isspace(%rip), %rax
	call	*%rax
.LVL2:
	.loc 2 90 24 discriminator 1
	testl	%eax, %eax
	jne	.L33
.L32:
	.loc 2 93 31
	movq	-16(%rbp), %rax
	subq	-8(%rbp), %rax
	.loc 2 93 12
	movq	%rax, -24(%rbp)
	.loc 2 94 5
	movq	-24(%rbp), %rdx
	movq	-8(%rbp), %rax
	movq	%rdx, %r8
	movq	%rax, %rdx
	movq	16(%rbp), %rcx
	call	memmove
	.loc 2 95 11
	movq	16(%rbp), %rdx
	movq	-24(%rbp), %rax
	addq	%rdx, %rax
	.loc 2 95 17
	movb	$0, (%rax)
	jmp	.L25
.L34:
	.loc 2 84 18
	nop
.L25:
	.loc 2 96 1
	addq	$64, %rsp
	popq	%rbp
	.cfi_restore 6
	.cfi_def_cfa 7, 8
	ret
	.cfi_endproc
.LFE4287:
	.seh_endproc
	.section .rdata,"dr"
.LC8:
	.ascii "\15\12\0"
	.text
	.def	read_line;	.scl	3;	.type	32;	.endef
	.seh_proc	read_line
read_line:
.LFB4288:
	.loc 2 98 50
	.cfi_startproc
	pushq	%rbp
	.seh_pushreg	%rbp
	.cfi_def_cfa_offset 16
	.cfi_offset 6, -16
	movq	%rsp, %rbp
	.seh_setframe	%rbp, 0
	.cfi_def_cfa_register 6
	subq	$32, %rsp
	.seh_stackalloc	32
	.seh_endprologue
	movq	%rcx, 16(%rbp)
	movq	%rdx, 24(%rbp)
	.loc 2 99 8
	cmpq	$0, 16(%rbp)
	je	.L36
	.loc 2 99 17 discriminator 2
	cmpq	$0, 24(%rbp)
	jne	.L37
.L36:
	.loc 2 99 38 discriminator 3
	movl	$0, %eax
	jmp	.L38
.L37:
	.loc 2 101 10
	movl	$0, %ecx
	movq	__imp___acrt_iob_func(%rip), %rax
	call	*%rax
.LVL3:
	movq	%rax, %rdx
	movq	24(%rbp), %rax
	movq	%rdx, %r8
	movl	%eax, %edx
	movq	16(%rbp), %rcx
	call	fgets
	.loc 2 101 8
	testq	%rax, %rax
	jne	.L39
	.loc 2 102 16
	movl	$0, %eax
	jmp	.L38
.L39:
	.loc 2 105 12
	leaq	.LC8(%rip), %rdx
	movq	16(%rbp), %rcx
	call	strcspn
	movq	%rax, %rdx
	.loc 2 105 11
	movq	16(%rbp), %rax
	addq	%rdx, %rax
	.loc 2 105 37
	movb	$0, (%rax)
	.loc 2 106 5
	movq	16(%rbp), %rcx
	call	trim_whitespace
	.loc 2 107 12
	movl	$1, %eax
.L38:
	.loc 2 108 1
	addq	$32, %rsp
	popq	%rbp
	.cfi_restore 6
	.cfi_def_cfa 7, 8
	ret
	.cfi_endproc
.LFE4288:
	.seh_endproc
	.section .rdata,"dr"
.LC9:
	.ascii "%s\0"
	.text
	.def	read_int;	.scl	3;	.type	32;	.endef
	.seh_proc	read_int
read_int:
.LFB4289:
	.loc 2 110 88
	.cfi_startproc
	pushq	%rbp
	.seh_pushreg	%rbp
	.cfi_def_cfa_offset 16
	.cfi_offset 6, -16
	movq	%rsp, %rbp
	.seh_setframe	%rbp, 0
	.cfi_def_cfa_register 6
	subq	$96, %rsp
	.seh_stackalloc	96
	.seh_endprologue
	movq	%rcx, 16(%rbp)
	movl	%edx, 24(%rbp)
	movl	%r8d, %eax
	movq	%r9, 40(%rbp)
	movb	%al, 32(%rbp)
	.loc 2 112 8
	cmpq	$0, 16(%rbp)
	je	.L41
	.loc 2 113 9
	movq	16(%rbp), %rdx
	leaq	.LC9(%rip), %rcx
	call	print_utf8_printf
	.loc 2 114 9
	movl	$1, %ecx
	movq	__imp___acrt_iob_func(%rip), %rax
	call	*%rax
.LVL4:
	movq	%rax, %rcx
	call	fflush
.L41:
	.loc 2 116 10
	leaq	-64(%rbp), %rax
	movl	$64, %edx
	movq	%rax, %rcx
	call	read_line
	.loc 2 116 9
	xorl	$1, %eax
	.loc 2 116 8
	testb	%al, %al
	je	.L42
	.loc 2 117 12
	cmpq	$0, 40(%rbp)
	je	.L43
	.loc 2 117 21 discriminator 1
	movq	40(%rbp), %rax
	movb	$0, (%rax)
.L43:
	.loc 2 118 16
	movl	24(%rbp), %eax
	jmp	.L50
.L42:
	.loc 2 120 13
	movzbl	-64(%rbp), %eax
	.loc 2 120 8
	testb	%al, %al
	jne	.L45
	.loc 2 121 12
	cmpb	$0, 32(%rbp)
	je	.L46
	.loc 2 122 16
	cmpq	$0, 40(%rbp)
	je	.L47
	.loc 2 122 25 discriminator 1
	movq	40(%rbp), %rax
	movb	$1, (%rax)
.L47:
	.loc 2 123 20
	movl	24(%rbp), %eax
	jmp	.L50
.L46:
	.loc 2 125 12
	cmpq	$0, 40(%rbp)
	je	.L48
	.loc 2 125 21 discriminator 1
	movq	40(%rbp), %rax
	movb	$0, (%rax)
.L48:
	.loc 2 126 16
	movl	24(%rbp), %eax
	jmp	.L50
.L45:
	.loc 2 128 8
	cmpq	$0, 40(%rbp)
	je	.L49
	.loc 2 128 17 discriminator 1
	movq	40(%rbp), %rax
	movb	$1, (%rax)
.L49:
	.loc 2 129 12
	leaq	-64(%rbp), %rax
	movq	%rax, %rcx
	call	atoi
.L50:
	.loc 2 130 1 discriminator 1
	addq	$96, %rsp
	popq	%rbp
	.cfi_restore 6
	.cfi_def_cfa 7, 8
	ret
	.cfi_endproc
.LFE4289:
	.seh_endproc
	.def	read_float;	.scl	3;	.type	32;	.endef
	.seh_proc	read_float
read_float:
.LFB4290:
	.loc 2 132 94
	.cfi_startproc
	pushq	%rbp
	.seh_pushreg	%rbp
	.cfi_def_cfa_offset 16
	.cfi_offset 6, -16
	movq	%rsp, %rbp
	.seh_setframe	%rbp, 0
	.cfi_def_cfa_register 6
	subq	$96, %rsp
	.seh_stackalloc	96
	.seh_endprologue
	movq	%rcx, 16(%rbp)
	movss	%xmm1, 24(%rbp)
	movl	%r8d, %eax
	movq	%r9, 40(%rbp)
	movb	%al, 32(%rbp)
	.loc 2 134 8
	cmpq	$0, 16(%rbp)
	je	.L52
	.loc 2 135 9
	movq	16(%rbp), %rdx
	leaq	.LC9(%rip), %rcx
	call	print_utf8_printf
	.loc 2 136 9
	movl	$1, %ecx
	movq	__imp___acrt_iob_func(%rip), %rax
	call	*%rax
.LVL5:
	movq	%rax, %rcx
	call	fflush
.L52:
	.loc 2 138 10
	leaq	-64(%rbp), %rax
	movl	$64, %edx
	movq	%rax, %rcx
	call	read_line
	.loc 2 138 9
	xorl	$1, %eax
	.loc 2 138 8
	testb	%al, %al
	je	.L53
	.loc 2 139 12
	cmpq	$0, 40(%rbp)
	je	.L54
	.loc 2 139 21 discriminator 1
	movq	40(%rbp), %rax
	movb	$0, (%rax)
.L54:
	.loc 2 140 16
	movss	24(%rbp), %xmm0
	jmp	.L61
.L53:
	.loc 2 142 13
	movzbl	-64(%rbp), %eax
	.loc 2 142 8
	testb	%al, %al
	jne	.L56
	.loc 2 143 12
	cmpb	$0, 32(%rbp)
	je	.L57
	.loc 2 144 16
	cmpq	$0, 40(%rbp)
	je	.L58
	.loc 2 144 25 discriminator 1
	movq	40(%rbp), %rax
	movb	$1, (%rax)
.L58:
	.loc 2 145 20
	movss	24(%rbp), %xmm0
	jmp	.L61
.L57:
	.loc 2 147 12
	cmpq	$0, 40(%rbp)
	je	.L59
	.loc 2 147 21 discriminator 1
	movq	40(%rbp), %rax
	movb	$0, (%rax)
.L59:
	.loc 2 148 16
	movss	24(%rbp), %xmm0
	jmp	.L61
.L56:
	.loc 2 150 8
	cmpq	$0, 40(%rbp)
	je	.L60
	.loc 2 150 17 discriminator 1
	movq	40(%rbp), %rax
	movb	$1, (%rax)
.L60:
	.loc 2 151 19
	leaq	-64(%rbp), %rax
	movq	%rax, %rcx
	call	atof
	.loc 2 151 12
	cvtsd2ss	%xmm0, %xmm0
.L61:
	.loc 2 152 1 discriminator 1
	addq	$96, %rsp
	popq	%rbp
	.cfi_restore 6
	.cfi_def_cfa 7, 8
	ret
	.cfi_endproc
.LFE4290:
	.seh_endproc
	.def	read_string;	.scl	3;	.type	32;	.endef
	.seh_proc	read_string
read_string:
.LFB4291:
	.loc 2 154 99
	.cfi_startproc
	pushq	%rbp
	.seh_pushreg	%rbp
	.cfi_def_cfa_offset 16
	.cfi_offset 6, -16
	movq	%rsp, %rbp
	.seh_setframe	%rbp, 0
	.cfi_def_cfa_register 6
	subq	$32, %rsp
	.seh_stackalloc	32
	.seh_endprologue
	movq	%rcx, 16(%rbp)
	movq	%rdx, 24(%rbp)
	movq	%r8, 32(%rbp)
	movq	%r9, 40(%rbp)
	.loc 2 155 8
	cmpq	$0, 16(%rbp)
	je	.L63
	.loc 2 156 9
	movq	16(%rbp), %rdx
	leaq	.LC9(%rip), %rcx
	call	print_utf8_printf
	.loc 2 157 9
	movl	$1, %ecx
	movq	__imp___acrt_iob_func(%rip), %rax
	call	*%rax
.LVL6:
	movq	%rax, %rcx
	call	fflush
.L63:
	.loc 2 159 10
	movq	32(%rbp), %rdx
	movq	24(%rbp), %rax
	movq	%rax, %rcx
	call	read_line
	.loc 2 159 9
	xorl	$1, %eax
	.loc 2 159 8
	testb	%al, %al
	je	.L64
	.loc 2 160 12
	cmpq	$0, 32(%rbp)
	je	.L67
	.loc 2 160 33 discriminator 1
	movq	24(%rbp), %rax
	movb	$0, (%rax)
	.loc 2 161 9 discriminator 1
	jmp	.L67
.L64:
	.loc 2 163 15
	movq	24(%rbp), %rax
	movzbl	(%rax), %eax
	.loc 2 163 8
	testb	%al, %al
	jne	.L62
	.loc 2 163 27 discriminator 1
	cmpq	$0, 40(%rbp)
	je	.L62
	.loc 2 164 9
	movq	32(%rbp), %rax
	leaq	-1(%rax), %rcx
	movq	40(%rbp), %rdx
	movq	24(%rbp), %rax
	movq	%rcx, %r8
	movq	%rax, %rcx
	call	strncpy
	.loc 2 165 15
	movq	32(%rbp), %rax
	leaq	-1(%rax), %rdx
	movq	24(%rbp), %rax
	addq	%rdx, %rax
	.loc 2 165 26
	movb	$0, (%rax)
	jmp	.L62
.L67:
	.loc 2 161 9
	nop
.L62:
	.loc 2 167 1
	addq	$32, %rsp
	popq	%rbp
	.cfi_restore 6
	.cfi_def_cfa 7, 8
	ret
	.cfi_endproc
.LFE4291:
	.seh_endproc
	.section .rdata,"dr"
	.align 8
.LC10:
	.ascii "\12========== \344\270\273\350\217\234\345\215\225 ==========\12\0"
	.align 8
.LC11:
	.ascii "1. \351\200\211\346\213\251\346\225\260\346\215\256\347\273\223\346\236\204\357\274\210\351\223\276\350\241\250/\345\223\210\345\270\214\350\241\250\357\274\211\12\0"
.LC12:
	.ascii "2. \345\212\240\350\275\275\346\225\260\346\215\256\357\274\210CSV\357\274\211\12\0"
.LC13:
	.ascii "3. \344\277\235\345\255\230\346\225\260\346\215\256\12\0"
.LC14:
	.ascii "4. \346\217\222\345\205\245\350\256\260\345\275\225\12\0"
.LC15:
	.ascii "5. \345\210\240\351\231\244\350\256\260\345\275\225\12\0"
.LC16:
	.ascii "6. \346\237\245\346\211\276\350\256\260\345\275\225\12\0"
.LC17:
	.ascii "7. \347\255\233\351\200\211\344\270\216\346\216\222\345\272\217\12\0"
.LC18:
	.ascii "8. \347\273\237\350\256\241\345\210\206\346\236\220\12\0"
.LC19:
	.ascii "9. \346\211\271\351\207\217\345\210\240\351\231\244\350\277\207\346\234\237\350\256\260\345\275\225\12\0"
.LC20:
	.ascii "10. \346\200\247\350\203\275\345\257\271\346\257\224\346\265\213\350\257\225\12\0"
.LC21:
	.ascii "11. \347\224\237\346\210\220\346\265\213\350\257\225\346\225\260\346\215\256\12\0"
.LC22:
	.ascii "0. \351\200\200\345\207\272\12\0"
.LC23:
	.ascii "\350\257\267\350\276\223\345\205\245\351\200\211\351\241\271\357\274\232\0"
	.text
	.def	display_main_menu;	.scl	3;	.type	32;	.endef
	.seh_proc	display_main_menu
display_main_menu:
.LFB4292:
	.loc 2 169 37
	.cfi_startproc
	pushq	%rbp
	.seh_pushreg	%rbp
	.cfi_def_cfa_offset 16
	.cfi_offset 6, -16
	movq	%rsp, %rbp
	.seh_setframe	%rbp, 0
	.cfi_def_cfa_register 6
	subq	$32, %rsp
	.seh_stackalloc	32
	.seh_endprologue
	.loc 2 170 5
	leaq	.LC10(%rip), %rcx
	call	print_utf8_printf
	.loc 2 171 5
	leaq	.LC11(%rip), %rcx
	call	print_utf8_printf
	.loc 2 172 5
	leaq	.LC12(%rip), %rcx
	call	print_utf8_printf
	.loc 2 173 5
	leaq	.LC13(%rip), %rcx
	call	print_utf8_printf
	.loc 2 174 5
	leaq	.LC14(%rip), %rcx
	call	print_utf8_printf
	.loc 2 175 5
	leaq	.LC15(%rip), %rcx
	call	print_utf8_printf
	.loc 2 176 5
	leaq	.LC16(%rip), %rcx
	call	print_utf8_printf
	.loc 2 177 5
	leaq	.LC17(%rip), %rcx
	call	print_utf8_printf
	.loc 2 178 5
	leaq	.LC18(%rip), %rcx
	call	print_utf8_printf
	.loc 2 179 5
	leaq	.LC19(%rip), %rcx
	call	print_utf8_printf
	.loc 2 180 5
	leaq	.LC20(%rip), %rcx
	call	print_utf8_printf
	.loc 2 181 5
	leaq	.LC21(%rip), %rcx
	call	print_utf8_printf
	.loc 2 182 5
	leaq	.LC22(%rip), %rcx
	call	print_utf8_printf
	.loc 2 183 5
	leaq	.LC23(%rip), %rcx
	call	print_utf8_printf
	.loc 2 184 5
	movl	$1, %ecx
	movq	__imp___acrt_iob_func(%rip), %rax
	call	*%rax
.LVL7:
	movq	%rax, %rcx
	call	fflush
	.loc 2 185 1
	nop
	addq	$32, %rsp
	popq	%rbp
	.cfi_restore 6
	.cfi_def_cfa 7, 8
	ret
	.cfi_endproc
.LFE4292:
	.seh_endproc
	.section .rdata,"dr"
	.align 8
.LC24:
	.ascii "\12===== \347\224\237\346\210\220\346\265\213\350\257\225\346\225\260\346\215\256 =====\12\0"
	.align 8
.LC25:
	.ascii "1. \347\224\237\346\210\220 100 \346\235\241 (data/generated_100.csv)\12\0"
	.align 8
.LC26:
	.ascii "2. \347\224\237\346\210\220 1000 \346\235\241 (data/generated_1000.csv)\12\0"
	.align 8
.LC27:
	.ascii "3. \347\224\237\346\210\220 10000 \346\235\241 (data/generated_10000.csv)\12\0"
.LC28:
	.ascii "4. \350\207\252\345\256\232\344\271\211\346\225\260\351\207\217\12\0"
.LC29:
	.ascii "\350\257\267\351\200\211\346\213\251\357\274\232\0"
.LC30:
	.ascii "\350\257\273\345\217\226\350\276\223\345\205\245\345\244\261\350\264\245\343\200\202\12\0"
.LC31:
	.ascii "generated_100.csv\0"
.LC32:
	.ascii "generated_1000.csv\0"
.LC33:
	.ascii "generated_10000.csv\0"
.LC34:
	.ascii "\350\257\267\350\276\223\345\205\245\347\224\237\346\210\220\346\225\260\351\207\217\357\274\232\0"
	.align 8
.LC35:
	.ascii "\350\257\267\350\276\223\345\205\245\350\276\223\345\207\272\346\226\207\344\273\266\350\267\257\345\276\204\357\274\210\345\233\236\350\275\246\344\275\277\347\224\250 data/generated_custom.csv\357\274\211\357\274\232\0"
.LC36:
	.ascii "generated_custom.csv\0"
.LC37:
	.ascii "\346\227\240\346\225\210\351\200\211\346\213\251\343\200\202\12\0"
.LC38:
	.ascii "\346\225\260\351\207\217\345\277\205\351\241\273\345\244\247\344\272\216 0\343\200\202\12\0"
.LC39:
	.ascii "\345\267\262\347\224\237\346\210\220 %d \346\235\241\350\256\260\345\275\225\345\210\260 %s\12\0"
	.align 8
.LC40:
	.ascii "\347\224\237\346\210\220\345\244\261\350\264\245\357\274\214\350\257\267\346\243\200\346\237\245\350\267\257\345\276\204\345\222\214\346\235\203\351\231\220\343\200\202\12\0"
	.text
	.def	generate_data_menu;	.scl	3;	.type	32;	.endef
	.seh_proc	generate_data_menu
generate_data_menu:
.LFB4293:
	.loc 2 187 38
	.cfi_startproc
	pushq	%rbp
	.seh_pushreg	%rbp
	.cfi_def_cfa_offset 16
	.cfi_offset 6, -16
	subq	$320, %rsp
	.seh_stackalloc	320
	.cfi_def_cfa_offset 336
	leaq	128(%rsp), %rbp
	.seh_setframe	%rbp, 128
	.cfi_def_cfa 6, 208
	.seh_endprologue
	.loc 2 188 5
	leaq	.LC24(%rip), %rcx
	call	print_utf8_printf
	.loc 2 189 5
	leaq	.LC25(%rip), %rcx
	call	print_utf8_printf
	.loc 2 190 5
	leaq	.LC26(%rip), %rcx
	call	print_utf8_printf
	.loc 2 191 5
	leaq	.LC27(%rip), %rcx
	call	print_utf8_printf
	.loc 2 192 5
	leaq	.LC28(%rip), %rcx
	call	print_utf8_printf
	.loc 2 193 5
	leaq	.LC29(%rip), %rcx
	call	print_utf8_printf
	.loc 2 195 18
	leaq	171(%rbp), %rax
	movq	%rax, %r9
	movl	$0, %r8d
	movl	$0, %edx
	movl	$0, %ecx
	call	read_int
	movl	%eax, 172(%rbp)
	.loc 2 196 9
	movzbl	171(%rbp), %eax
	xorl	$1, %eax
	.loc 2 196 8
	testb	%al, %al
	je	.L70
	.loc 2 197 9
	leaq	.LC30(%rip), %rcx
	call	print_utf8_printf
	.loc 2 198 9
	jmp	.L69
.L70:
	.loc 2 201 9
	movl	$0, 188(%rbp)
	.loc 2 202 17
	movq	$0, 176(%rbp)
	cmpl	$2, 172(%rbp)
	je	.L72
	cmpl	$2, 172(%rbp)
	jg	.L73
	cmpl	$1, 172(%rbp)
	je	.L74
	jmp	.L75
.L73:
	cmpl	$3, 172(%rbp)
	je	.L76
	cmpl	$4, 172(%rbp)
	je	.L77
	jmp	.L75
.L74:
	.loc 2 206 23
	movl	$100, 188(%rbp)
	.loc 2 206 35
	leaq	.LC31(%rip), %rax
	movq	%rax, 176(%rbp)
	.loc 2 206 9
	jmp	.L78
.L72:
	.loc 2 207 23
	movl	$1000, 188(%rbp)
	.loc 2 207 36
	leaq	.LC32(%rip), %rax
	movq	%rax, 176(%rbp)
	.loc 2 207 9
	jmp	.L78
.L76:
	.loc 2 208 23
	movl	$10000, 188(%rbp)
	.loc 2 208 37
	leaq	.LC33(%rip), %rax
	movq	%rax, 176(%rbp)
	.loc 2 208 9
	jmp	.L78
.L77:
	.loc 2 210 21
	leaq	171(%rbp), %rax
	movq	%rax, %r9
	movl	$0, %r8d
	movl	$0, %edx
	leaq	.LC34(%rip), %rcx
	call	read_int
	movl	%eax, 188(%rbp)
	.loc 2 211 17
	movzbl	171(%rbp), %eax
	xorl	$1, %eax
	.loc 2 211 16
	testb	%al, %al
	je	.L79
	.loc 2 212 17
	leaq	.LC30(%rip), %rcx
	call	print_utf8_printf
	.loc 2 213 17
	jmp	.L69
.L79:
	.loc 2 215 13
	leaq	.LC35(%rip), %rcx
	call	print_utf8_printf
	.loc 2 216 13
	leaq	-96(%rbp), %rax
	leaq	.LC36(%rip), %r9
	movl	$256, %r8d
	movq	%rax, %rdx
	movl	$0, %ecx
	call	read_string
	.loc 2 217 18
	leaq	-96(%rbp), %rax
	movq	%rax, 176(%rbp)
	.loc 2 218 13
	jmp	.L78
.L75:
	.loc 2 220 13
	leaq	.LC37(%rip), %rcx
	call	print_utf8_printf
	.loc 2 221 13
	jmp	.L69
.L78:
	.loc 2 224 8
	cmpl	$0, 188(%rbp)
	jg	.L80
	.loc 2 225 9
	leaq	.LC38(%rip), %rcx
	call	print_utf8_printf
	.loc 2 226 9
	jmp	.L69
.L80:
	.loc 2 230 9
	movq	176(%rbp), %rdx
	movl	188(%rbp), %eax
	movl	%eax, %ecx
	call	generate_csv
	.loc 2 230 8
	testb	%al, %al
	je	.L81
	.loc 2 231 9
	movq	176(%rbp), %rdx
	movl	188(%rbp), %eax
	movq	%rdx, %r8
	movl	%eax, %edx
	leaq	.LC39(%rip), %rcx
	call	print_utf8_printf
	jmp	.L69
.L81:
	.loc 2 233 9
	leaq	.LC40(%rip), %rcx
	call	print_utf8_printf
	nop
.L69:
	.loc 2 235 1
	addq	$320, %rsp
	popq	%rbp
	.cfi_restore 6
	.cfi_def_cfa 7, -312
	ret
	.cfi_endproc
.LFE4293:
	.seh_endproc
	.section .rdata,"dr"
.LC41:
	.ascii "\12\350\257\267\351\200\211\346\213\251\346\225\260\346\215\256\347\273\223\346\236\204\357\274\232\12\0"
.LC42:
	.ascii "1. \345\217\214\345\220\221\351\223\276\350\241\250\12\0"
.LC43:
	.ascii "2. \345\223\210\345\270\214\350\241\250\12\0"
.LC44:
	.ascii "\350\257\267\350\276\223\345\205\245\346\225\260\345\255\227\357\274\232\0"
.LC45:
	.ascii "\345\267\262\351\200\211\346\213\251\345\217\214\345\220\221\351\223\276\350\241\250\343\200\202\12\0"
.LC46:
	.ascii "\345\267\262\351\200\211\346\213\251\345\223\210\345\270\214\350\241\250\343\200\202\12\0"
	.align 8
.LC47:
	.ascii "\346\227\240\346\225\210\351\200\211\346\213\251\357\274\214\350\257\267\351\207\215\346\226\260\351\200\211\346\213\251\343\200\202\12\0"
.LC48:
	.ascii "\345\256\271\345\231\250\345\210\233\345\273\272\346\210\220\345\212\237\343\200\202\12\0"
	.align 8
.LC49:
	.ascii "\345\256\271\345\231\250\345\210\233\345\273\272\345\244\261\350\264\245\357\274\214\350\257\267\346\243\200\346\237\245\345\206\205\345\255\230\343\200\202\12\0"
	.text
	.def	select_data_structure;	.scl	3;	.type	32;	.endef
	.seh_proc	select_data_structure
select_data_structure:
.LFB4294:
	.loc 2 237 41
	.cfi_startproc
	pushq	%rbp
	.seh_pushreg	%rbp
	.cfi_def_cfa_offset 16
	.cfi_offset 6, -16
	movq	%rsp, %rbp
	.seh_setframe	%rbp, 0
	.cfi_def_cfa_register 6
	subq	$48, %rsp
	.seh_stackalloc	48
	.seh_endprologue
	.loc 2 239 5
	leaq	.LC41(%rip), %rcx
	call	print_utf8_printf
	.loc 2 240 5
	leaq	.LC42(%rip), %rcx
	call	print_utf8_printf
	.loc 2 241 5
	leaq	.LC43(%rip), %rcx
	call	print_utf8_printf
	.loc 2 242 5
	leaq	.LC44(%rip), %rcx
	call	print_utf8_printf
	.loc 2 244 14
	leaq	-5(%rbp), %rax
	movq	%rax, %r9
	movl	$0, %r8d
	movl	$0, %edx
	movl	$0, %ecx
	call	read_int
	movl	%eax, -4(%rbp)
	.loc 2 245 9
	movzbl	-5(%rbp), %eax
	xorl	$1, %eax
	.loc 2 245 8
	testb	%al, %al
	je	.L85
	.loc 2 246 9
	leaq	.LC30(%rip), %rcx
	call	print_utf8_printf
	.loc 2 247 9
	jmp	.L84
.L85:
	.loc 2 250 9
	movq	g_container(%rip), %rax
	.loc 2 250 8
	testq	%rax, %rax
	je	.L87
	.loc 2 250 21 discriminator 1
	movq	g_iface(%rip), %rax
	testq	%rax, %rax
	je	.L87
	.loc 2 251 16
	movq	g_iface(%rip), %rax
	movq	8(%rax), %rax
	.loc 2 251 9
	movq	g_container(%rip), %rdx
	movq	%rdx, %rcx
	call	*%rax
.LVL8:
	.loc 2 252 21
	movq	$0, g_container(%rip)
	.loc 2 253 17
	movq	$0, g_iface(%rip)
.L87:
	.loc 2 256 8
	cmpl	$1, -4(%rbp)
	jne	.L88
	.loc 2 257 19
	call	get_list_interface
	.loc 2 257 17
	movq	%rax, g_iface(%rip)
	.loc 2 258 9
	leaq	.LC45(%rip), %rcx
	call	print_utf8_printf
	jmp	.L89
.L88:
	.loc 2 259 15
	cmpl	$2, -4(%rbp)
	jne	.L90
	.loc 2 260 19
	call	get_hash_interface
	.loc 2 260 17
	movq	%rax, g_iface(%rip)
	.loc 2 261 9
	leaq	.LC46(%rip), %rcx
	call	print_utf8_printf
	jmp	.L89
.L90:
	.loc 2 263 9
	leaq	.LC47(%rip), %rcx
	call	print_utf8_printf
	.loc 2 264 9
	jmp	.L84
.L89:
	.loc 2 267 26
	movq	g_iface(%rip), %rax
	movq	(%rax), %rax
	.loc 2 267 19
	call	*%rax
.LVL9:
	.loc 2 267 17
	movq	%rax, g_container(%rip)
	.loc 2 268 9
	movq	g_container(%rip), %rax
	.loc 2 268 8
	testq	%rax, %rax
	je	.L91
	.loc 2 269 9
	leaq	.LC48(%rip), %rcx
	call	print_utf8_printf
	jmp	.L84
.L91:
	.loc 2 271 9
	leaq	.LC49(%rip), %rcx
	call	print_utf8_printf
	.loc 2 272 17
	movq	$0, g_iface(%rip)
.L84:
	.loc 2 274 1
	addq	$48, %rsp
	popq	%rbp
	.cfi_restore 6
	.cfi_def_cfa 7, 8
	ret
	.cfi_endproc
.LFE4294:
	.seh_endproc
	.section .rdata,"dr"
.LC50:
	.ascii "\350\257\267\345\205\210\351\200\211\346\213\251\346\225\260\346\215\256\347\273\223\346\236\204\357\274\201\12\0"
	.align 8
.LC51:
	.ascii "\350\276\223\345\205\245\346\226\207\344\273\266\345\220\215\357\274\210\347\233\264\346\216\245\345\233\236\350\275\246\344\275\277\347\224\250\351\273\230\350\256\244 data/records.csv\357\274\211\357\274\232\0"
	.align 8
.LC52:
	.ascii "\345\256\271\345\231\250\351\207\215\345\273\272\345\244\261\350\264\245\357\274\214\350\257\267\346\243\200\346\237\245\345\206\205\345\255\230\343\200\202\12\0"
.LC53:
	.ascii "\346\210\220\345\212\237\345\212\240\350\275\275 %d \346\235\241\350\256\260\345\275\225\343\200\202\12\0"
	.align 8
.LC54:
	.ascii "\345\212\240\350\275\275\345\244\261\350\264\245\357\274\214\350\257\267\346\243\200\346\237\245\346\226\207\344\273\266\350\267\257\345\276\204\345\222\214\346\240\274\345\274\217\343\200\202\12\0"
	.text
	.def	load_data;	.scl	3;	.type	32;	.endef
	.seh_proc	load_data
load_data:
.LFB4295:
	.loc 2 276 29
	.cfi_startproc
	pushq	%rbp
	.seh_pushreg	%rbp
	.cfi_def_cfa_offset 16
	.cfi_offset 6, -16
	subq	$304, %rsp
	.seh_stackalloc	304
	.cfi_def_cfa_offset 320
	leaq	128(%rsp), %rbp
	.seh_setframe	%rbp, 128
	.cfi_def_cfa 6, 192
	.seh_endprologue
	.loc 2 277 9
	movq	g_container(%rip), %rax
	.loc 2 277 8
	testq	%rax, %rax
	je	.L95
	.loc 2 277 25 discriminator 1
	movq	g_iface(%rip), %rax
	.loc 2 277 22 discriminator 1
	testq	%rax, %rax
	jne	.L96
.L95:
	.loc 2 278 9
	leaq	.LC50(%rip), %rcx
	call	print_utf8_printf
	.loc 2 279 9
	jmp	.L94
.L96:
	.loc 2 283 5
	leaq	-96(%rbp), %rax
	movl	$0, %r9d
	movl	$256, %r8d
	movq	%rax, %rdx
	leaq	.LC51(%rip), %rcx
	call	read_string
	.loc 2 285 16
	leaq	-96(%rbp), %rax
	.loc 2 285 23
	movzbl	(%rax), %eax
	.loc 2 285 8
	testb	%al, %al
	je	.L98
	.loc 2 286 9
	leaq	-96(%rbp), %rax
	movq	%rax, %rdx
	leaq	g_current_file(%rip), %rcx
	call	strcpy
.L98:
	.loc 2 289 9
	movq	g_container(%rip), %rax
	.loc 2 289 8
	testq	%rax, %rax
	je	.L99
	.loc 2 289 21 discriminator 1
	movq	g_iface(%rip), %rax
	testq	%rax, %rax
	je	.L99
	.loc 2 290 16
	movq	g_iface(%rip), %rax
	movq	8(%rax), %rax
	.loc 2 290 9
	movq	g_container(%rip), %rdx
	movq	%rdx, %rcx
	call	*%rax
.LVL10:
	.loc 2 291 30
	movq	g_iface(%rip), %rax
	movq	(%rax), %rax
	.loc 2 291 23
	call	*%rax
.LVL11:
	.loc 2 291 21
	movq	%rax, g_container(%rip)
	.loc 2 292 13
	movq	g_container(%rip), %rax
	.loc 2 292 12
	testq	%rax, %rax
	jne	.L99
	.loc 2 293 13
	leaq	.LC52(%rip), %rcx
	call	print_utf8_printf
	.loc 2 294 21
	movq	$0, g_iface(%rip)
	.loc 2 295 13
	jmp	.L94
.L99:
	.loc 2 299 18
	movq	g_iface(%rip), %rdx
	movq	g_container(%rip), %rax
	movq	%rdx, %r8
	leaq	g_current_file(%rip), %rdx
	movq	%rax, %rcx
	call	load_from_csv
	movl	%eax, 172(%rbp)
	.loc 2 300 8
	cmpl	$0, 172(%rbp)
	js	.L100
	.loc 2 301 9
	movl	172(%rbp), %eax
	movl	%eax, %edx
	leaq	.LC53(%rip), %rcx
	call	print_utf8_printf
	jmp	.L94
.L100:
	.loc 2 303 9
	leaq	.LC54(%rip), %rcx
	call	print_utf8_printf
	nop
.L94:
	.loc 2 305 1
	addq	$304, %rsp
	popq	%rbp
	.cfi_restore 6
	.cfi_def_cfa 7, -296
	ret
	.cfi_endproc
.LFE4295:
	.seh_endproc
	.section .rdata,"dr"
	.align 8
.LC55:
	.ascii "\350\257\267\345\205\210\351\200\211\346\213\251\346\225\260\346\215\256\347\273\223\346\236\204\345\271\266\345\212\240\350\275\275\346\225\260\346\215\256\357\274\201\12\0"
	.align 8
.LC56:
	.ascii "\346\210\220\345\212\237\344\277\235\345\255\230 %d \346\235\241\350\256\260\345\275\225\345\210\260 %s\343\200\202\12\0"
	.align 8
.LC57:
	.ascii "\344\277\235\345\255\230\345\244\261\350\264\245\357\274\214\350\257\267\346\243\200\346\237\245\346\226\207\344\273\266\346\235\203\351\231\220\346\210\226\347\243\201\347\233\230\347\251\272\351\227\264\343\200\202\12\0"
	.text
	.def	save_data;	.scl	3;	.type	32;	.endef
	.seh_proc	save_data
save_data:
.LFB4296:
	.loc 2 307 29
	.cfi_startproc
	pushq	%rbp
	.seh_pushreg	%rbp
	.cfi_def_cfa_offset 16
	.cfi_offset 6, -16
	movq	%rsp, %rbp
	.seh_setframe	%rbp, 0
	.cfi_def_cfa_register 6
	subq	$48, %rsp
	.seh_stackalloc	48
	.seh_endprologue
	.loc 2 308 9
	movq	g_container(%rip), %rax
	.loc 2 308 8
	testq	%rax, %rax
	je	.L104
	.loc 2 308 25 discriminator 1
	movq	g_iface(%rip), %rax
	.loc 2 308 22 discriminator 1
	testq	%rax, %rax
	jne	.L105
.L104:
	.loc 2 309 9
	leaq	.LC55(%rip), %rcx
	call	print_utf8_printf
	.loc 2 310 9
	jmp	.L103
.L105:
	.loc 2 313 17
	movq	g_iface(%rip), %rdx
	movq	g_container(%rip), %rax
	movq	%rdx, %r8
	leaq	g_current_file(%rip), %rdx
	movq	%rax, %rcx
	call	save_to_csv
	movl	%eax, -4(%rbp)
	.loc 2 314 8
	cmpl	$0, -4(%rbp)
	js	.L107
	.loc 2 315 9
	movl	-4(%rbp), %eax
	leaq	g_current_file(%rip), %r8
	movl	%eax, %edx
	leaq	.LC56(%rip), %rcx
	call	print_utf8_printf
	jmp	.L103
.L107:
	.loc 2 317 9
	leaq	.LC57(%rip), %rcx
	call	print_utf8_printf
	nop
.L103:
	.loc 2 319 1
	addq	$48, %rsp
	popq	%rbp
	.cfi_restore 6
	.cfi_def_cfa 7, 8
	ret
	.cfi_endproc
.LFE4296:
	.seh_endproc
	.section .rdata,"dr"
.LC58:
	.ascii "\350\257\267\350\276\223\345\205\245\345\255\246\345\217\267\357\274\210"
	.ascii "12\344\275\215\357\274\211\357\274\232\0"
.LC59:
	.ascii "\350\257\267\350\276\223\345\205\245\345\247\223\345\220\215\357\274\232\0"
.LC60:
	.ascii "\350\257\267\350\276\223\345\205\245\345\255\246\351\231\242\357\274\232\0"
	.align 8
.LC61:
	.ascii "\350\257\267\350\276\223\345\205\245\350\257\276\347\250\213\347\274\226\345\217\267\357\274\210"
	.ascii "8\344\275\215\357\274\211\357\274\232\0"
.LC62:
	.ascii "\350\257\267\350\276\223\345\205\245\350\257\276\347\250\213\345\220\215\347\247\260\357\274\232\0"
	.align 8
.LC63:
	.ascii "\350\257\267\350\276\223\345\205\245\345\255\246\345\210\206\357\274\210\345\246\202 3.5\357\274\211\357\274\232\0"
.LC65:
	.ascii "\350\276\223\345\205\245\345\255\246\345\210\206\345\244\261\350\264\245\343\200\202\12\0"
	.align 8
.LC66:
	.ascii "\350\257\267\350\276\223\345\205\245\351\200\211\350\257\276\345\255\246\346\234\237\357\274\210\345\246\202 2024-02\357\274\211\357\274\232\0"
	.align 8
.LC67:
	.ascii "\350\257\267\350\276\223\345\205\245\351\200\211\350\257\276\346\227\245\346\234\237\357\274\210YYYY-MM-DD\357\274\211\357\274\232\0"
.LC68:
	.ascii "\350\257\267\350\276\223\345\205\245\346\210\220\347\273\251\357\274\210"
	.ascii "0-100\357\274\211\357\274\232\0"
.LC69:
	.ascii "\350\276\223\345\205\245\346\210\220\347\273\251\345\244\261\350\264\245\343\200\202\12\0"
.LC70:
	.ascii "\346\217\222\345\205\245\346\210\220\345\212\237\343\200\202\12\0"
	.align 8
.LC71:
	.ascii "\346\217\222\345\205\245\345\244\261\350\264\245\357\274\210\345\217\257\350\203\275\350\256\260\345\275\225\345\267\262\345\255\230\345\234\250\346\210\226\345\206\205\345\255\230\344\270\215\350\266\263\357\274\211\343\200\202\12\0"
	.text
	.def	insert_record;	.scl	3;	.type	32;	.endef
	.seh_proc	insert_record
insert_record:
.LFB4297:
	.loc 2 321 33
	.cfi_startproc
	pushq	%rbp
	.seh_pushreg	%rbp
	.cfi_def_cfa_offset 16
	.cfi_offset 6, -16
	subq	$320, %rsp
	.seh_stackalloc	320
	.cfi_def_cfa_offset 336
	leaq	128(%rsp), %rbp
	.seh_setframe	%rbp, 128
	.cfi_def_cfa 6, 208
	.seh_endprologue
	.loc 2 322 9
	movq	g_container(%rip), %rax
	.loc 2 322 8
	testq	%rax, %rax
	je	.L109
	.loc 2 322 25 discriminator 1
	movq	g_iface(%rip), %rax
	.loc 2 322 22 discriminator 1
	testq	%rax, %rax
	jne	.L110
.L109:
	.loc 2 323 9
	leaq	.LC50(%rip), %rcx
	call	print_utf8_printf
	.loc 2 324 9
	jmp	.L108
.L110:
	.loc 2 329 5
	leaq	-80(%rbp), %rax
	movl	$264, %r8d
	movl	$0, %edx
	movq	%rax, %rcx
	call	memset
	.loc 2 330 5
	leaq	-80(%rbp), %rax
	movl	$0, %r9d
	movl	$16, %r8d
	movq	%rax, %rdx
	leaq	.LC58(%rip), %rcx
	call	read_string
	.loc 2 331 5
	leaq	-80(%rbp), %rax
	addq	$16, %rax
	movl	$0, %r9d
	movl	$64, %r8d
	movq	%rax, %rdx
	leaq	.LC59(%rip), %rcx
	call	read_string
	.loc 2 332 5
	leaq	-80(%rbp), %rax
	addq	$80, %rax
	movl	$0, %r9d
	movl	$64, %r8d
	movq	%rax, %rdx
	leaq	.LC60(%rip), %rcx
	call	read_string
	.loc 2 333 5
	leaq	-80(%rbp), %rax
	addq	$144, %rax
	movl	$0, %r9d
	movl	$16, %r8d
	movq	%rax, %rdx
	leaq	.LC61(%rip), %rcx
	call	read_string
	.loc 2 334 5
	leaq	-80(%rbp), %rax
	addq	$160, %rax
	movl	$0, %r9d
	movl	$64, %r8d
	movq	%rax, %rdx
	leaq	.LC62(%rip), %rcx
	call	read_string
	.loc 2 335 18
	leaq	-81(%rbp), %rax
	movq	%rax, %r9
	movl	$0, %r8d
	pxor	%xmm1, %xmm1
	leaq	.LC63(%rip), %rcx
	call	read_float
	movd	%xmm0, %eax
	.loc 2 335 16
	movl	%eax, 144(%rbp)
	.loc 2 336 9
	movzbl	-81(%rbp), %eax
	xorl	$1, %eax
	.loc 2 336 8
	testb	%al, %al
	je	.L112
	.loc 2 337 9
	leaq	.LC65(%rip), %rcx
	call	print_utf8_printf
	.loc 2 338 9
	jmp	.L108
.L112:
	.loc 2 340 5
	leaq	-80(%rbp), %rax
	addq	$228, %rax
	movl	$0, %r9d
	movl	$16, %r8d
	movq	%rax, %rdx
	leaq	.LC66(%rip), %rcx
	call	read_string
	.loc 2 341 5
	leaq	-80(%rbp), %rax
	addq	$244, %rax
	movl	$0, %r9d
	movl	$16, %r8d
	movq	%rax, %rdx
	leaq	.LC67(%rip), %rcx
	call	read_string
	.loc 2 342 17
	leaq	-81(%rbp), %rax
	movq	%rax, %r9
	movl	$0, %r8d
	movl	$0, %edx
	leaq	.LC68(%rip), %rcx
	call	read_int
	.loc 2 342 15
	movl	%eax, 180(%rbp)
	.loc 2 343 9
	movzbl	-81(%rbp), %eax
	xorl	$1, %eax
	.loc 2 343 8
	testb	%al, %al
	je	.L113
	.loc 2 344 9
	leaq	.LC69(%rip), %rcx
	call	print_utf8_printf
	.loc 2 345 9
	jmp	.L108
.L113:
	.loc 2 348 16
	movq	g_iface(%rip), %rax
	movq	16(%rax), %r8
	.loc 2 348 9
	movq	g_container(%rip), %rcx
	leaq	-80(%rbp), %rax
	movq	%rax, %rdx
	call	*%r8
.LVL12:
	.loc 2 348 8
	testb	%al, %al
	je	.L114
	.loc 2 349 9
	leaq	.LC70(%rip), %rcx
	call	print_utf8_printf
	jmp	.L108
.L114:
	.loc 2 351 9
	leaq	.LC71(%rip), %rcx
	call	print_utf8_printf
	nop
.L108:
	.loc 2 353 1
	addq	$320, %rsp
	popq	%rbp
	.cfi_restore 6
	.cfi_def_cfa 7, -312
	ret
	.cfi_endproc
.LFE4297:
	.seh_endproc
	.section .rdata,"dr"
.LC72:
	.ascii "\350\257\267\350\276\223\345\205\245\345\255\246\345\217\267\357\274\232\0"
.LC73:
	.ascii "\350\257\267\350\276\223\345\205\245\350\257\276\347\250\213\347\274\226\345\217\267\357\274\232\0"
.LC74:
	.ascii "\345\210\240\351\231\244\346\210\220\345\212\237\343\200\202\12\0"
.LC75:
	.ascii "\346\234\252\346\211\276\345\210\260\350\257\245\350\256\260\345\275\225\343\200\202\12\0"
	.text
	.def	delete_record;	.scl	3;	.type	32;	.endef
	.seh_proc	delete_record
delete_record:
.LFB4298:
	.loc 2 355 33
	.cfi_startproc
	pushq	%rbp
	.seh_pushreg	%rbp
	.cfi_def_cfa_offset 16
	.cfi_offset 6, -16
	movq	%rsp, %rbp
	.seh_setframe	%rbp, 0
	.cfi_def_cfa_register 6
	subq	$64, %rsp
	.seh_stackalloc	64
	.seh_endprologue
	.loc 2 356 9
	movq	g_container(%rip), %rax
	.loc 2 356 8
	testq	%rax, %rax
	je	.L118
	.loc 2 356 25 discriminator 1
	movq	g_iface(%rip), %rax
	.loc 2 356 22 discriminator 1
	testq	%rax, %rax
	jne	.L119
.L118:
	.loc 2 357 9
	leaq	.LC55(%rip), %rcx
	call	print_utf8_printf
	jmp	.L117
.L119:
	.loc 2 363 5
	leaq	-16(%rbp), %rax
	movl	$0, %r9d
	movl	$16, %r8d
	movq	%rax, %rdx
	leaq	.LC72(%rip), %rcx
	call	read_string
	.loc 2 364 5
	leaq	-32(%rbp), %rax
	movl	$0, %r9d
	movl	$16, %r8d
	movq	%rax, %rdx
	leaq	.LC73(%rip), %rcx
	call	read_string
	.loc 2 366 16
	movq	g_iface(%rip), %rax
	movq	24(%rax), %r9
	.loc 2 366 9
	movq	g_container(%rip), %rcx
	leaq	-32(%rbp), %rdx
	leaq	-16(%rbp), %rax
	movq	%rdx, %r8
	movq	%rax, %rdx
	call	*%r9
.LVL13:
	.loc 2 366 8
	testb	%al, %al
	je	.L121
	.loc 2 367 9
	leaq	.LC74(%rip), %rcx
	call	print_utf8_printf
	jmp	.L117
.L121:
	.loc 2 369 9
	leaq	.LC75(%rip), %rcx
	call	print_utf8_printf
	nop
.L117:
	.loc 2 371 1
	addq	$64, %rsp
	popq	%rbp
	.cfi_restore 6
	.cfi_def_cfa 7, 8
	ret
	.cfi_endproc
.LFE4298:
	.seh_endproc
	.section .rdata,"dr"
	.align 8
.LC76:
	.ascii "\12========== \346\211\276\345\210\260\350\256\260\345\275\225 ==========\12\0"
.LC77:
	.ascii "\345\255\246\345\217\267\357\274\232%s\12\0"
.LC78:
	.ascii "\345\247\223\345\220\215\357\274\232%s\12\0"
.LC79:
	.ascii "\345\255\246\351\231\242\357\274\232%s\12\0"
.LC80:
	.ascii "\350\257\276\347\250\213\347\274\226\345\217\267\357\274\232%s\12\0"
.LC81:
	.ascii "\350\257\276\347\250\213\345\220\215\347\247\260\357\274\232%s\12\0"
.LC82:
	.ascii "\345\255\246\345\210\206\357\274\232%.1f\12\0"
.LC83:
	.ascii "\345\255\246\346\234\237\357\274\232%s\12\0"
.LC84:
	.ascii "\346\227\245\346\234\237\357\274\232%s\12\0"
.LC85:
	.ascii "\346\210\220\347\273\251\357\274\232%d\12\0"
	.align 8
.LC86:
	.ascii "==============================\12\0"
	.text
	.def	find_record;	.scl	3;	.type	32;	.endef
	.seh_proc	find_record
find_record:
.LFB4299:
	.loc 2 373 31
	.cfi_startproc
	pushq	%rbp
	.seh_pushreg	%rbp
	.cfi_def_cfa_offset 16
	.cfi_offset 6, -16
	movq	%rsp, %rbp
	.seh_setframe	%rbp, 0
	.cfi_def_cfa_register 6
	subq	$80, %rsp
	.seh_stackalloc	80
	.seh_endprologue
	.loc 2 374 9
	movq	g_container(%rip), %rax
	.loc 2 374 8
	testq	%rax, %rax
	je	.L124
	.loc 2 374 25 discriminator 1
	movq	g_iface(%rip), %rax
	.loc 2 374 22 discriminator 1
	testq	%rax, %rax
	jne	.L125
.L124:
	.loc 2 375 9
	leaq	.LC55(%rip), %rcx
	call	print_utf8_printf
	jmp	.L123
.L125:
	.loc 2 381 5
	leaq	-32(%rbp), %rax
	movl	$0, %r9d
	movl	$16, %r8d
	movq	%rax, %rdx
	leaq	.LC72(%rip), %rcx
	call	read_string
	.loc 2 382 5
	leaq	-48(%rbp), %rax
	movl	$0, %r9d
	movl	$16, %r8d
	movq	%rax, %rdx
	leaq	.LC73(%rip), %rcx
	call	read_string
	.loc 2 384 26
	movq	g_iface(%rip), %rax
	movq	40(%rax), %r9
	.loc 2 384 19
	movq	g_container(%rip), %rcx
	leaq	-48(%rbp), %rdx
	leaq	-32(%rbp), %rax
	movq	%rdx, %r8
	movq	%rax, %rdx
	call	*%r9
.LVL14:
	movq	%rax, -8(%rbp)
	.loc 2 385 8
	cmpq	$0, -8(%rbp)
	je	.L127
	.loc 2 386 9
	leaq	.LC76(%rip), %rcx
	call	print_utf8_printf
	.loc 2 387 36
	movq	-8(%rbp), %rax
	.loc 2 387 9
	movq	%rax, %rdx
	leaq	.LC77(%rip), %rcx
	call	print_utf8_printf
	.loc 2 388 36
	movq	-8(%rbp), %rax
	addq	$16, %rax
	.loc 2 388 9
	movq	%rax, %rdx
	leaq	.LC78(%rip), %rcx
	call	print_utf8_printf
	.loc 2 389 36
	movq	-8(%rbp), %rax
	addq	$80, %rax
	.loc 2 389 9
	movq	%rax, %rdx
	leaq	.LC79(%rip), %rcx
	call	print_utf8_printf
	.loc 2 390 42
	movq	-8(%rbp), %rax
	addq	$144, %rax
	.loc 2 390 9
	movq	%rax, %rdx
	leaq	.LC80(%rip), %rcx
	call	print_utf8_printf
	.loc 2 391 42
	movq	-8(%rbp), %rax
	addq	$160, %rax
	.loc 2 391 9
	movq	%rax, %rdx
	leaq	.LC81(%rip), %rcx
	call	print_utf8_printf
	.loc 2 392 38
	movq	-8(%rbp), %rax
	movss	224(%rax), %xmm0
	.loc 2 392 9
	cvtss2sd	%xmm0, %xmm0
	movq	%xmm0, %rax
	movq	%rax, %rdx
	movq	%rdx, %xmm1
	movq	%rax, %rdx
	leaq	.LC82(%rip), %rcx
	call	print_utf8_printf
	.loc 2 393 36
	movq	-8(%rbp), %rax
	addq	$228, %rax
	.loc 2 393 9
	movq	%rax, %rdx
	leaq	.LC83(%rip), %rcx
	call	print_utf8_printf
	.loc 2 394 36
	movq	-8(%rbp), %rax
	addq	$244, %rax
	.loc 2 394 9
	movq	%rax, %rdx
	leaq	.LC84(%rip), %rcx
	call	print_utf8_printf
	.loc 2 395 9
	movq	-8(%rbp), %rax
	movl	260(%rax), %eax
	movl	%eax, %edx
	leaq	.LC85(%rip), %rcx
	call	print_utf8_printf
	.loc 2 396 9
	leaq	.LC86(%rip), %rcx
	call	print_utf8_printf
	.loc 2 397 9
	movq	-8(%rbp), %rax
	movq	%rax, %rcx
	call	free
	jmp	.L123
.L127:
	.loc 2 399 9
	leaq	.LC75(%rip), %rcx
	call	print_utf8_printf
	nop
.L123:
	.loc 2 401 1
	addq	$80, %rsp
	popq	%rbp
	.cfi_restore 6
	.cfi_def_cfa 7, 8
	ret
	.cfi_endproc
.LFE4299:
	.seh_endproc
	.section .rdata,"dr"
.LC87:
	.ascii "score\0"
.LC88:
	.ascii "student_id\0"
.LC89:
	.ascii "course_id\0"
.LC90:
	.ascii "name\0"
.LC91:
	.ascii "course_name\0"
.LC92:
	.ascii "college\0"
.LC93:
	.ascii "semester\0"
.LC94:
	.ascii "credit\0"
	.text
	.def	validate_sort_key;	.scl	3;	.type	32;	.endef
	.seh_proc	validate_sort_key
validate_sort_key:
.LFB4300:
	.loc 2 403 48
	.cfi_startproc
	pushq	%rbp
	.seh_pushreg	%rbp
	.cfi_def_cfa_offset 16
	.cfi_offset 6, -16
	movq	%rsp, %rbp
	.seh_setframe	%rbp, 0
	.cfi_def_cfa_register 6
	subq	$112, %rsp
	.seh_stackalloc	112
	.seh_endprologue
	movq	%rcx, 16(%rbp)
	.loc 2 404 17
	leaq	.LC87(%rip), %rax
	movq	%rax, -80(%rbp)
	leaq	.LC88(%rip), %rax
	movq	%rax, -72(%rbp)
	leaq	.LC89(%rip), %rax
	movq	%rax, -64(%rbp)
	leaq	.LC90(%rip), %rax
	movq	%rax, -56(%rbp)
	leaq	.LC91(%rip), %rax
	movq	%rax, -48(%rbp)
	leaq	.LC92(%rip), %rax
	movq	%rax, -40(%rbp)
	leaq	.LC93(%rip), %rax
	movq	%rax, -32(%rbp)
	leaq	.LC94(%rip), %rax
	movq	%rax, -24(%rbp)
.LBB3:
	.loc 2 405 14
	movl	$0, -4(%rbp)
	.loc 2 405 5
	jmp	.L130
.L133:
	.loc 2 406 13
	movl	-4(%rbp), %eax
	cltq
	movq	-80(%rbp,%rax,8), %rax
	movq	%rax, %rdx
	movq	16(%rbp), %rcx
	call	strcmp
	.loc 2 406 12
	testl	%eax, %eax
	jne	.L131
	.loc 2 407 20
	movl	$1, %eax
	jmp	.L134
.L131:
	.loc 2 405 76 discriminator 2
	addl	$1, -4(%rbp)
.L130:
	.loc 2 405 5 discriminator 1
	cmpl	$7, -4(%rbp)
	jle	.L133
.LBE3:
	.loc 2 410 12
	movl	$0, %eax
.L134:
	.loc 2 411 1 discriminator 1
	addq	$112, %rsp
	popq	%rbp
	.cfi_restore 6
	.cfi_def_cfa 7, 8
	ret
	.cfi_endproc
.LFE4300:
	.seh_endproc
	.section .rdata,"dr"
	.align 8
.LC95:
	.ascii "\12===== \347\255\233\351\200\211\346\235\241\344\273\266\357\274\210\347\233\264\346\216\245\345\233\236\350\275\246\350\241\250\347\244\272\344\270\215\351\231\220\345\210\266\357\274\211 =====\12\0"
.LC96:
	.ascii "\345\255\246\345\217\267\357\274\210\347\262\276\347\241\256\345\214\271\351\205\215\357\274\211\357\274\232\0"
.LC97:
	.ascii "\345\247\223\345\220\215\357\274\210\346\250\241\347\263\212\345\214\271\351\205\215\357\274\211\357\274\232\0"
	.align 8
.LC98:
	.ascii "\350\257\276\347\250\213\345\220\215\347\247\260\357\274\210\346\250\241\347\263\212\345\214\271\351\205\215\357\274\211\357\274\232\0"
	.align 8
.LC99:
	.ascii "\345\255\246\346\234\237\357\274\210\347\262\276\347\241\256\345\214\271\351\205\215\357\274\214\345\246\202 2024-02\357\274\211\357\274\232\0"
	.align 8
.LC100:
	.ascii "\346\210\220\347\273\251\344\270\213\351\231\220\357\274\210\347\233\264\346\216\245\345\233\236\350\275\246\350\241\250\347\244\272\344\270\215\351\231\220\345\210\266\357\274\211\357\274\232\0"
	.align 8
.LC101:
	.ascii "\346\210\220\347\273\251\344\270\212\351\231\220\357\274\210\347\233\264\346\216\245\345\233\236\350\275\246\350\241\250\347\244\272\344\270\215\351\231\220\345\210\266\357\274\211\357\274\232\0"
.LC102:
	.ascii "\345\255\246\351\231\242\357\274\210\347\262\276\347\241\256\345\214\271\351\205\215\357\274\211\357\274\232\0"
.LC103:
	.ascii "\346\262\241\346\234\211\345\214\271\351\205\215\347\232\204\350\256\260\345\275\225\343\200\202\12\0"
	.align 8
.LC104:
	.ascii "\346\230\257\345\220\246\350\207\252\345\256\232\344\271\211\346\216\222\345\272\217\345\255\227\346\256\265\357\274\237(y/n)\357\274\232\0"
	.align 8
.LC105:
	.ascii "\350\257\267\350\276\223\345\205\245\347\254\254 %d \344\270\252\346\216\222\345\272\217\345\255\227\346\256\265\357\274\210score/student_id/course_id/name/course_name/college/semester/credit\357\274\214\345\233\236\350\275\246\347\273\223\346\235\237\357\274\211\357\274\232\0"
	.align 8
.LC106:
	.ascii "\346\227\240\346\225\210\345\255\227\346\256\265\357\274\232%s\357\274\214\345\267\262\345\277\275\347\225\245\343\200\202\12\0"
.LC107:
	.ascii "%s \346\216\222\345\272\217\346\226\271\345\220\221 (asc/desc)\357\274\232\0"
.LC108:
	.ascii "desc\0"
	.align 8
.LC109:
	.ascii "\12===== \347\255\233\351\200\211\346\216\222\345\272\217\347\273\223\346\236\234\357\274\210\345\205\261 %d \346\235\241\357\274\211 =====\12\0"
.LC110:
	.ascii "%d. %s %s %s %s %.1f %d\12\0"
.LC111:
	.ascii "...\357\274\210\344\273\205\346\230\276\347\244\272\345\211\215"
	.ascii "20\346\235\241\357\274\211\12\0"
	.align 8
.LC112:
	.ascii "\12\346\230\257\345\220\246\345\257\274\345\207\272\345\210\260\346\226\207\344\273\266\357\274\237(y/n)\357\274\232\0"
	.align 8
.LC113:
	.ascii "\350\257\267\350\276\223\345\205\245\346\226\207\344\273\266\345\220\215\357\274\210\345\246\202 output.csv\357\274\211\357\274\232\0"
.LC114:
	.ascii "\12\0"
.LC115:
	.ascii "\346\210\220\345\212\237\345\257\274\345\207\272\345\210\260 %s\12\0"
.LC116:
	.ascii "\345\257\274\345\207\272\345\244\261\350\264\245\343\200\202\12\0"
	.text
	.def	filter_and_sort;	.scl	3;	.type	32;	.endef
	.seh_proc	filter_and_sort
filter_and_sort:
.LFB4301:
	.loc 2 413 35
	.cfi_startproc
	pushq	%rbp
	.seh_pushreg	%rbp
	.cfi_def_cfa_offset 16
	.cfi_offset 6, -16
	pushq	%rdi
	.seh_pushreg	%rdi
	.cfi_def_cfa_offset 24
	.cfi_offset 5, -24
	subq	$744, %rsp
	.seh_stackalloc	744
	.cfi_def_cfa_offset 768
	leaq	128(%rsp), %rbp
	.seh_setframe	%rbp, 128
	.cfi_def_cfa 6, 640
	.seh_endprologue
	.loc 2 414 9
	movq	g_container(%rip), %rax
	.loc 2 414 8
	testq	%rax, %rax
	je	.L136
	.loc 2 414 25 discriminator 1
	movq	g_iface(%rip), %rax
	.loc 2 414 22 discriminator 1
	testq	%rax, %rax
	jne	.L137
.L136:
	.loc 2 415 9
	leaq	.LC55(%rip), %rcx
	call	print_utf8_printf
	.loc 2 416 9
	jmp	.L135
.L137:
	.loc 2 419 20
	leaq	320(%rbp), %rdx
	movl	$0, %eax
	movl	$29, %ecx
	movq	%rdx, %rdi
	rep stosq
	.loc 2 421 5
	leaq	.LC95(%rip), %rcx
	call	print_utf8_printf
	.loc 2 422 5
	leaq	320(%rbp), %rax
	movl	$0, %r9d
	movl	$16, %r8d
	movq	%rax, %rdx
	leaq	.LC96(%rip), %rcx
	call	read_string
	.loc 2 423 5
	leaq	320(%rbp), %rax
	addq	$16, %rax
	movl	$0, %r9d
	movl	$64, %r8d
	movq	%rax, %rdx
	leaq	.LC97(%rip), %rcx
	call	read_string
	.loc 2 424 5
	leaq	320(%rbp), %rax
	addq	$80, %rax
	movl	$0, %r9d
	movl	$64, %r8d
	movq	%rax, %rdx
	leaq	.LC98(%rip), %rcx
	call	read_string
	.loc 2 425 5
	leaq	320(%rbp), %rax
	addq	$144, %rax
	movl	$0, %r9d
	movl	$16, %r8d
	movq	%rax, %rdx
	leaq	.LC99(%rip), %rcx
	call	read_string
	.loc 2 427 26
	leaq	319(%rbp), %rax
	movq	%rax, %r9
	movl	$1, %r8d
	movl	$-1, %edx
	leaq	.LC100(%rip), %rcx
	call	read_int
	.loc 2 427 24
	movl	%eax, 480(%rbp)
	.loc 2 428 9
	movzbl	319(%rbp), %eax
	xorl	$1, %eax
	.loc 2 428 8
	testb	%al, %al
	je	.L139
	.loc 2 429 9
	leaq	.LC30(%rip), %rcx
	call	print_utf8_printf
	.loc 2 430 9
	jmp	.L135
.L139:
	.loc 2 432 26
	leaq	319(%rbp), %rax
	movq	%rax, %r9
	movl	$1, %r8d
	movl	$-1, %edx
	leaq	.LC101(%rip), %rcx
	call	read_int
	.loc 2 432 24
	movl	%eax, 484(%rbp)
	.loc 2 433 9
	movzbl	319(%rbp), %eax
	xorl	$1, %eax
	.loc 2 433 8
	testb	%al, %al
	je	.L140
	.loc 2 434 9
	leaq	.LC30(%rip), %rcx
	call	print_utf8_printf
	.loc 2 435 9
	jmp	.L135
.L140:
	.loc 2 438 5
	leaq	320(%rbp), %rax
	addq	$168, %rax
	movl	$0, %r9d
	movl	$64, %r8d
	movq	%rax, %rdx
	leaq	.LC102(%rip), %rcx
	call	read_string
	.loc 2 440 9
	movl	$0, 312(%rbp)
	.loc 2 441 24
	movq	g_iface(%rip), %rdx
	movq	g_container(%rip), %rax
	leaq	312(%rbp), %r8
	leaq	320(%rbp), %rcx
	movq	%r8, %r9
	movq	%rcx, %r8
	movq	%rax, %rcx
	call	filter_records
	movq	%rax, 576(%rbp)
	.loc 2 442 8
	cmpq	$0, 576(%rbp)
	je	.L141
	.loc 2 442 27 discriminator 1
	movl	312(%rbp), %eax
	.loc 2 442 18 discriminator 1
	testl	%eax, %eax
	jne	.L142
.L141:
	.loc 2 443 9
	leaq	.LC103(%rip), %rcx
	call	print_utf8_printf
	.loc 2 444 12
	cmpq	$0, 576(%rbp)
	je	.L165
	.loc 2 444 22 discriminator 1
	movq	576(%rbp), %rax
	movq	%rax, %rcx
	call	free
	.loc 2 445 9 discriminator 1
	jmp	.L165
.L142:
	.loc 2 448 17
	leaq	.LC87(%rip), %rax
	movq	%rax, 288(%rbp)
	leaq	.LC88(%rip), %rax
	movq	%rax, 296(%rbp)
	.loc 2 449 10
	movb	$0, 286(%rbp)
	movb	$1, 287(%rbp)
	.loc 2 450 17
	movq	$0, 256(%rbp)
	movq	$0, 264(%rbp)
	movq	$0, 272(%rbp)
	.loc 2 451 10
	movb	$1, 253(%rbp)
	movb	$1, 254(%rbp)
	movb	$1, 255(%rbp)
	.loc 2 452 9
	movl	$0, 604(%rbp)
	.loc 2 455 5
	leaq	245(%rbp), %rax
	movl	$0, %r9d
	movl	$8, %r8d
	movq	%rax, %rdx
	leaq	.LC104(%rip), %rcx
	call	read_string
	.loc 2 456 15
	movzbl	245(%rbp), %eax
	.loc 2 456 8
	cmpb	$121, %al
	je	.L144
	.loc 2 456 35 discriminator 1
	movzbl	245(%rbp), %eax
	.loc 2 456 26 discriminator 1
	cmpb	$89, %al
	jne	.L145
.L144:
.LBB4:
	.loc 2 457 18
	movl	$0, 600(%rbp)
	.loc 2 457 9
	jmp	.L146
.L150:
.LBB5:
	.loc 2 460 13
	movl	600(%rbp), %eax
	leal	1(%rax), %edx
	leaq	-32(%rbp), %rax
	movl	%edx, %r9d
	leaq	.LC105(%rip), %r8
	movl	$256, %edx
	movq	%rax, %rcx
	call	snprintf
	.loc 2 461 13
	leaq	-64(%rbp), %rdx
	leaq	-32(%rbp), %rax
	movl	$0, %r9d
	movl	$32, %r8d
	movq	%rax, %rcx
	call	read_string
	.loc 2 462 20
	movzbl	-64(%rbp), %eax
	.loc 2 462 16
	testb	%al, %al
	je	.L166
	.loc 2 463 18
	leaq	-64(%rbp), %rax
	movq	%rax, %rcx
	call	validate_sort_key
	.loc 2 463 17
	xorl	$1, %eax
	.loc 2 463 16
	testb	%al, %al
	je	.L148
	.loc 2 464 17
	leaq	-64(%rbp), %rax
	movq	%rax, %rdx
	leaq	.LC106(%rip), %rcx
	call	print_utf8_printf
	jmp	.L149
.L148:
	.loc 2 467 37
	leaq	-64(%rbp), %rax
	movq	%rax, %rcx
	call	strdup
	movq	%rax, %rdx
	.loc 2 467 35
	movl	604(%rbp), %eax
	cltq
	movq	%rdx, 256(%rbp,%rax,8)
	.loc 2 469 13
	leaq	-64(%rbp), %rdx
	leaq	-32(%rbp), %rax
	movq	%rdx, %r9
	leaq	.LC107(%rip), %r8
	movl	$256, %edx
	movq	%rax, %rcx
	call	snprintf
	.loc 2 470 13
	leaq	227(%rbp), %rdx
	leaq	-32(%rbp), %rax
	movl	$0, %r9d
	movl	$8, %r8d
	movq	%rax, %rcx
	call	read_string
	.loc 2 471 40
	leaq	227(%rbp), %rax
	leaq	.LC108(%rip), %rdx
	movq	%rax, %rcx
	call	strcmp
	.loc 2 471 62
	testl	%eax, %eax
	setne	%al
	.loc 2 471 37
	movl	604(%rbp), %edx
	movslq	%edx, %rdx
	movb	%al, 253(%rbp,%rdx)
	.loc 2 472 23
	addl	$1, 604(%rbp)
.L149:
.LBE5:
	.loc 2 457 32 discriminator 2
	addl	$1, 600(%rbp)
.L146:
	.loc 2 457 9 discriminator 1
	cmpl	$2, 600(%rbp)
	jle	.L150
	jmp	.L145
.L166:
.LBB6:
	.loc 2 462 13
	nop
.L145:
.LBE6:
.LBE4:
	.loc 2 476 8
	cmpl	$0, 604(%rbp)
	jne	.L151
	.loc 2 477 20
	movl	$2, 604(%rbp)
	.loc 2 478 36
	movq	288(%rbp), %rax
	.loc 2 478 22
	movq	%rax, 256(%rbp)
	.loc 2 479 40
	movzbl	286(%rbp), %eax
	.loc 2 479 24
	movb	%al, 253(%rbp)
	.loc 2 480 36
	movq	296(%rbp), %rax
	.loc 2 480 22
	movq	%rax, 264(%rbp)
	.loc 2 481 40
	movzbl	287(%rbp), %eax
	.loc 2 481 24
	movb	%al, 254(%rbp)
.L151:
	.loc 2 484 5
	movl	312(%rbp), %edx
	leaq	253(%rbp), %r8
	leaq	256(%rbp), %rcx
	movq	576(%rbp), %rax
	movl	604(%rbp), %r9d
	movl	%r9d, 32(%rsp)
	movq	%r8, %r9
	movq	%rcx, %r8
	movq	%rax, %rcx
	call	multi_key_sort
	.loc 2 486 5
	movl	312(%rbp), %eax
	movl	%eax, %edx
	leaq	.LC109(%rip), %rcx
	call	print_utf8_printf
	.loc 2 487 37
	movl	312(%rbp), %eax
	.loc 2 487 9
	movl	$20, %edx
	cmpl	$20, %eax
	cmovg	%edx, %eax
	movl	%eax, 572(%rbp)
.LBB7:
	.loc 2 488 14
	movl	$0, 596(%rbp)
	.loc 2 488 5
	jmp	.L152
.L153:
.LBB8:
	.loc 2 489 28 discriminator 3
	movl	596(%rbp), %eax
	cltq
	leaq	0(,%rax,8), %rdx
	movq	576(%rbp), %rax
	addq	%rdx, %rax
	.loc 2 489 17 discriminator 3
	movq	(%rax), %rax
	movq	%rax, 560(%rbp)
	.loc 2 490 9 discriminator 3
	movq	560(%rbp), %rax
	movl	260(%rax), %r8d
	.loc 2 492 30 discriminator 3
	movq	560(%rbp), %rax
	movss	224(%rax), %xmm0
	.loc 2 490 9 discriminator 3
	cvtss2sd	%xmm0, %xmm0
	.loc 2 492 17 discriminator 3
	movq	560(%rbp), %rax
	leaq	228(%rax), %rcx
	.loc 2 491 48 discriminator 3
	movq	560(%rbp), %rax
	leaq	160(%rax), %rdx
	.loc 2 491 39 discriminator 3
	movq	560(%rbp), %rax
	leaq	16(%rax), %r9
	.loc 2 491 24 discriminator 3
	movq	560(%rbp), %r10
	.loc 2 490 9 discriminator 3
	movl	596(%rbp), %eax
	addl	$1, %eax
	movl	%r8d, 56(%rsp)
	movsd	%xmm0, 48(%rsp)
	movq	%rcx, 40(%rsp)
	movq	%rdx, 32(%rsp)
	movq	%r10, %r8
	movl	%eax, %edx
	leaq	.LC110(%rip), %rcx
	call	print_utf8_printf
.LBE8:
	.loc 2 488 31 discriminator 3
	addl	$1, 596(%rbp)
.L152:
	.loc 2 488 5 discriminator 1
	movl	596(%rbp), %eax
	cmpl	572(%rbp), %eax
	jl	.L153
.LBE7:
	.loc 2 494 15
	movl	312(%rbp), %eax
	.loc 2 494 8
	cmpl	$20, %eax
	jle	.L154
	.loc 2 494 21 discriminator 1
	leaq	.LC111(%rip), %rcx
	call	print_utf8_printf
.L154:
	.loc 2 497 5
	leaq	.LC112(%rip), %rcx
	call	print_utf8_printf
	.loc 2 498 5
	movl	$1, %ecx
	movq	__imp___acrt_iob_func(%rip), %rax
	call	*%rax
.LVL15:
	movq	%rax, %rcx
	call	fflush
	.loc 2 499 5
	movl	$0, %ecx
	movq	__imp___acrt_iob_func(%rip), %rax
	call	*%rax
.LVL16:
	movq	%rax, %rdx
	leaq	235(%rbp), %rax
	movq	%rdx, %r8
	movl	$10, %edx
	movq	%rax, %rcx
	call	fgets
	.loc 2 500 15
	movzbl	235(%rbp), %eax
	.loc 2 500 8
	cmpb	$121, %al
	je	.L155
	.loc 2 500 35 discriminator 1
	movzbl	235(%rbp), %eax
	.loc 2 500 26 discriminator 1
	cmpb	$89, %al
	jne	.L156
.L155:
.LBB9:
	.loc 2 502 9
	leaq	.LC113(%rip), %rcx
	call	print_utf8_printf
	.loc 2 503 9
	movl	$1, %ecx
	movq	__imp___acrt_iob_func(%rip), %rax
	call	*%rax
.LVL17:
	movq	%rax, %rcx
	call	fflush
	.loc 2 504 9
	movl	$0, %ecx
	movq	__imp___acrt_iob_func(%rip), %rax
	call	*%rax
.LVL18:
	movq	%rax, %rdx
	leaq	-32(%rbp), %rax
	movq	%rdx, %r8
	movl	$256, %edx
	movq	%rax, %rcx
	call	fgets
	.loc 2 505 15
	leaq	-32(%rbp), %rax
	leaq	.LC114(%rip), %rdx
	movq	%rax, %rcx
	call	strcspn
	.loc 2 505 37
	movb	$0, -32(%rbp,%rax)
	.loc 2 506 20
	leaq	-32(%rbp), %rax
	.loc 2 506 27
	movzbl	(%rax), %eax
	.loc 2 506 12
	testb	%al, %al
	je	.L156
	.loc 2 507 17
	movl	312(%rbp), %edx
	leaq	-32(%rbp), %rcx
	movq	576(%rbp), %rax
	movq	%rcx, %r8
	movq	%rax, %rcx
	call	export_to_csv
	.loc 2 507 16
	testb	%al, %al
	je	.L158
	.loc 2 508 17
	leaq	-32(%rbp), %rax
	movq	%rax, %rdx
	leaq	.LC115(%rip), %rcx
	call	print_utf8_printf
	jmp	.L156
.L158:
	.loc 2 510 17
	leaq	.LC116(%rip), %rcx
	call	print_utf8_printf
.L156:
.LBE9:
.LBB10:
	.loc 2 515 14
	movl	$0, 592(%rbp)
	.loc 2 515 5
	jmp	.L159
.L161:
	.loc 2 516 22
	movl	592(%rbp), %eax
	cltq
	movq	256(%rbp,%rax,8), %rax
	.loc 2 516 12
	testq	%rax, %rax
	je	.L160
	.loc 2 516 38 discriminator 1
	movl	592(%rbp), %eax
	cltq
	movq	256(%rbp,%rax,8), %rdx
	.loc 2 516 57 discriminator 1
	movq	288(%rbp), %rax
	.loc 2 516 26 discriminator 1
	cmpq	%rax, %rdx
	je	.L160
	.loc 2 516 73 discriminator 2
	movl	592(%rbp), %eax
	cltq
	movq	256(%rbp,%rax,8), %rdx
	.loc 2 516 92 discriminator 2
	movq	296(%rbp), %rax
	.loc 2 516 61 discriminator 2
	cmpq	%rax, %rdx
	je	.L160
	.loc 2 517 34
	movl	592(%rbp), %eax
	cltq
	movq	256(%rbp,%rax,8), %rax
	.loc 2 517 13
	movq	%rax, %rcx
	call	free
.L160:
	.loc 2 515 37 discriminator 2
	addl	$1, 592(%rbp)
.L159:
	.loc 2 515 5 discriminator 1
	movl	592(%rbp), %eax
	cmpl	604(%rbp), %eax
	jl	.L161
.LBE10:
.LBB11:
	.loc 2 520 14
	movl	$0, 588(%rbp)
	.loc 2 520 5
	jmp	.L162
.L163:
	.loc 2 520 49 discriminator 3
	movl	588(%rbp), %eax
	cltq
	leaq	0(,%rax,8), %rdx
	movq	576(%rbp), %rax
	addq	%rdx, %rax
	.loc 2 520 37 discriminator 3
	movq	(%rax), %rax
	movq	%rax, %rcx
	call	free
	.loc 2 520 32 discriminator 3
	addl	$1, 588(%rbp)
.L162:
	.loc 2 520 23 discriminator 1
	movl	312(%rbp), %eax
	.loc 2 520 5 discriminator 1
	cmpl	%eax, 588(%rbp)
	jl	.L163
.LBE11:
	.loc 2 521 5
	movq	576(%rbp), %rax
	movq	%rax, %rcx
	call	free
	jmp	.L135
.L165:
	.loc 2 445 9
	nop
.L135:
	.loc 2 522 1
	addq	$744, %rsp
	popq	%rdi
	.cfi_restore 5
	popq	%rbp
	.cfi_restore 6
	.cfi_def_cfa 7, -728
	ret
	.cfi_endproc
.LFE4301:
	.seh_endproc
	.section .rdata,"dr"
.LC117:
	.ascii "2023-09-01\0"
.LC118:
	.ascii "\346\262\241\346\234\211\350\256\260\345\275\225\345\217\257\346\223\215\344\275\234\343\200\202\12\0"
	.align 8
.LC119:
	.ascii "\346\262\241\346\234\211\350\277\207\346\234\237\350\256\260\345\275\225\351\234\200\350\246\201\345\210\240\351\231\244\357\274\210\345\237\272\345\207\206\346\227\245\346\234\237\357\274\232"
	.ascii "2023-09-01\357\274\211\343\200\202\12\0"
	.align 8
.LC120:
	.ascii "\346\211\276\345\210\260 %d \346\235\241\350\277\207\346\234\237\350\256\260\345\275\225\357\274\210\351\200\211\350\257\276\346\227\245\346\234\237\346\227\251\344\272\216 2023-09-01\357\274\211\357\274\214\347\241\256\350\256\244\345\210\240\351\231\244\357\274\237(y/n)\357\274\232\0"
	.align 8
.LC121:
	.ascii "\346\210\220\345\212\237\345\210\240\351\231\244 %d \346\235\241\350\277\207\346\234\237\350\256\260\345\275\225\343\200\202\12\0"
.LC122:
	.ascii "\346\223\215\344\275\234\345\267\262\345\217\226\346\266\210\343\200\202\12\0"
	.text
	.def	delete_expired;	.scl	3;	.type	32;	.endef
	.seh_proc	delete_expired
delete_expired:
.LFB4302:
	.loc 2 524 34
	.cfi_startproc
	pushq	%rbp
	.seh_pushreg	%rbp
	.cfi_def_cfa_offset 16
	.cfi_offset 6, -16
	movq	%rsp, %rbp
	.seh_setframe	%rbp, 0
	.cfi_def_cfa_register 6
	subq	$96, %rsp
	.seh_stackalloc	96
	.seh_endprologue
	.loc 2 525 9
	movq	g_container(%rip), %rax
	.loc 2 525 8
	testq	%rax, %rax
	je	.L168
	.loc 2 525 25 discriminator 1
	movq	g_iface(%rip), %rax
	.loc 2 525 22 discriminator 1
	testq	%rax, %rax
	jne	.L169
.L168:
	.loc 2 526 9
	leaq	.LC55(%rip), %rcx
	call	print_utf8_printf
	.loc 2 527 9
	jmp	.L167
.L169:
	.loc 2 530 17
	leaq	.LC117(%rip), %rax
	movq	%rax, -32(%rbp)
	.loc 2 531 9
	movl	$0, -44(%rbp)
	.loc 2 532 27
	movq	g_iface(%rip), %rax
	movq	48(%rax), %r8
	.loc 2 532 20
	movq	g_container(%rip), %rcx
	leaq	-44(%rbp), %rax
	movq	%rax, %rdx
	call	*%r8
.LVL19:
	movq	%rax, -40(%rbp)
	.loc 2 533 8
	cmpq	$0, -40(%rbp)
	je	.L171
	.loc 2 533 23 discriminator 1
	movl	-44(%rbp), %eax
	.loc 2 533 14 discriminator 1
	testl	%eax, %eax
	jne	.L172
.L171:
	.loc 2 534 9
	leaq	.LC118(%rip), %rcx
	call	print_utf8_printf
	.loc 2 535 12
	cmpq	$0, -40(%rbp)
	je	.L189
	.loc 2 535 18 discriminator 1
	movq	-40(%rbp), %rax
	movq	%rax, %rcx
	call	free
	.loc 2 536 9 discriminator 1
	jmp	.L189
.L172:
	.loc 2 539 9
	movl	$0, -4(%rbp)
.LBB12:
	.loc 2 540 14
	movl	$0, -8(%rbp)
	.loc 2 540 5
	jmp	.L174
.L176:
	.loc 2 541 23
	movl	-8(%rbp), %eax
	cltq
	leaq	0(,%rax,8), %rdx
	movq	-40(%rbp), %rax
	addq	%rdx, %rax
	movq	(%rax), %rax
	.loc 2 541 26
	addq	$244, %rax
	.loc 2 541 13
	movq	-32(%rbp), %rdx
	movq	%rax, %rcx
	call	strcmp
	.loc 2 541 12
	testl	%eax, %eax
	jns	.L175
	.loc 2 542 22
	addl	$1, -4(%rbp)
.L175:
	.loc 2 540 32 discriminator 2
	addl	$1, -8(%rbp)
.L174:
	.loc 2 540 23 discriminator 1
	movl	-44(%rbp), %eax
	.loc 2 540 5 discriminator 1
	cmpl	%eax, -8(%rbp)
	jl	.L176
.LBE12:
	.loc 2 546 8
	cmpl	$0, -4(%rbp)
	jne	.L177
	.loc 2 547 9
	leaq	.LC119(%rip), %rcx
	call	print_utf8_printf
.LBB13:
	.loc 2 548 18
	movl	$0, -12(%rbp)
	.loc 2 548 9
	jmp	.L178
.L179:
	.loc 2 548 49 discriminator 3
	movl	-12(%rbp), %eax
	cltq
	leaq	0(,%rax,8), %rdx
	movq	-40(%rbp), %rax
	addq	%rdx, %rax
	.loc 2 548 41 discriminator 3
	movq	(%rax), %rax
	movq	%rax, %rcx
	call	free
	.loc 2 548 36 discriminator 3
	addl	$1, -12(%rbp)
.L178:
	.loc 2 548 27 discriminator 1
	movl	-44(%rbp), %eax
	.loc 2 548 9 discriminator 1
	cmpl	%eax, -12(%rbp)
	jl	.L179
.LBE13:
	.loc 2 549 9
	movq	-40(%rbp), %rax
	movq	%rax, %rcx
	call	free
	.loc 2 550 9
	jmp	.L167
.L177:
	.loc 2 553 5
	movl	-4(%rbp), %eax
	movl	%eax, %edx
	leaq	.LC120(%rip), %rcx
	call	print_utf8_printf
	.loc 2 555 5
	leaq	-52(%rbp), %rax
	movl	$0, %r9d
	movl	$8, %r8d
	movq	%rax, %rdx
	movl	$0, %ecx
	call	read_string
	.loc 2 557 16
	movzbl	-52(%rbp), %eax
	.loc 2 557 8
	cmpb	$121, %al
	je	.L180
	.loc 2 557 37 discriminator 1
	movzbl	-52(%rbp), %eax
	.loc 2 557 27 discriminator 1
	cmpb	$89, %al
	jne	.L181
.L180:
.LBB14:
	.loc 2 558 13
	movl	$0, -16(%rbp)
.LBB15:
	.loc 2 559 18
	movl	$0, -20(%rbp)
	.loc 2 559 9
	jmp	.L182
.L184:
	.loc 2 560 27
	movl	-20(%rbp), %eax
	cltq
	leaq	0(,%rax,8), %rdx
	movq	-40(%rbp), %rax
	addq	%rdx, %rax
	movq	(%rax), %rax
	.loc 2 560 30
	addq	$244, %rax
	.loc 2 560 17
	movq	-32(%rbp), %rdx
	movq	%rax, %rcx
	call	strcmp
	.loc 2 560 16
	testl	%eax, %eax
	jns	.L183
	.loc 2 561 28
	movq	g_iface(%rip), %rax
	movq	24(%rax), %rax
	.loc 2 561 73
	movl	-20(%rbp), %edx
	movslq	%edx, %rdx
	leaq	0(,%rdx,8), %rcx
	movq	-40(%rbp), %rdx
	addq	%rcx, %rdx
	movq	(%rdx), %rdx
	.loc 2 561 76
	leaq	144(%rdx), %r8
	.loc 2 561 53
	movl	-20(%rbp), %edx
	movslq	%edx, %rdx
	leaq	0(,%rdx,8), %rcx
	movq	-40(%rbp), %rdx
	addq	%rcx, %rdx
	movq	(%rdx), %rdx
	.loc 2 561 21
	movq	g_container(%rip), %rcx
	call	*%rax
.LVL20:
	.loc 2 561 20
	testb	%al, %al
	je	.L183
	.loc 2 562 28
	addl	$1, -16(%rbp)
.L183:
	.loc 2 565 21 discriminator 2
	movl	-20(%rbp), %eax
	cltq
	leaq	0(,%rax,8), %rdx
	movq	-40(%rbp), %rax
	addq	%rdx, %rax
	.loc 2 565 13 discriminator 2
	movq	(%rax), %rax
	movq	%rax, %rcx
	call	free
	.loc 2 559 36 discriminator 2
	addl	$1, -20(%rbp)
.L182:
	.loc 2 559 27 discriminator 1
	movl	-44(%rbp), %eax
	.loc 2 559 9 discriminator 1
	cmpl	%eax, -20(%rbp)
	jl	.L184
.LBE15:
	.loc 2 567 9
	movl	-16(%rbp), %eax
	movl	%eax, %edx
	leaq	.LC121(%rip), %rcx
	call	print_utf8_printf
.LBE14:
	.loc 2 557 49
	jmp	.L185
.L181:
.LBB16:
	.loc 2 569 18
	movl	$0, -24(%rbp)
	.loc 2 569 9
	jmp	.L186
.L187:
	.loc 2 569 49 discriminator 3
	movl	-24(%rbp), %eax
	cltq
	leaq	0(,%rax,8), %rdx
	movq	-40(%rbp), %rax
	addq	%rdx, %rax
	.loc 2 569 41 discriminator 3
	movq	(%rax), %rax
	movq	%rax, %rcx
	call	free
	.loc 2 569 36 discriminator 3
	addl	$1, -24(%rbp)
.L186:
	.loc 2 569 27 discriminator 1
	movl	-44(%rbp), %eax
	.loc 2 569 9 discriminator 1
	cmpl	%eax, -24(%rbp)
	jl	.L187
.LBE16:
	.loc 2 570 9
	leaq	.LC122(%rip), %rcx
	call	print_utf8_printf
.L185:
	.loc 2 572 5
	movq	-40(%rbp), %rax
	movq	%rax, %rcx
	call	free
	jmp	.L167
.L189:
	.loc 2 536 9
	nop
.L167:
	.loc 2 573 1
	addq	$96, %rsp
	popq	%rbp
	.cfi_restore 6
	.cfi_def_cfa 7, 8
	ret
	.cfi_endproc
.LFE4302:
	.seh_endproc
	.section .rdata,"dr"
.LC123:
	.ascii "\12===== \347\273\237\350\256\241\345\210\206\346\236\220 =====\12\0"
	.align 8
.LC124:
	.ascii "1. \346\257\217\351\227\250\350\257\276\347\250\213\351\200\211\350\257\276\344\272\272\346\225\260\344\270\216\345\256\271\351\207\217\344\275\277\347\224\250\347\216\207\12\0"
	.align 8
.LC125:
	.ascii "2. \346\257\217\344\275\215\345\255\246\347\224\237\351\200\211\350\257\276\351\227\250\346\225\260\344\270\216\346\200\273\345\255\246\345\210\206\12\0"
	.align 8
.LC126:
	.ascii "3. \345\220\204\345\255\246\351\231\242\351\200\211\350\257\276\344\272\272\346\225\260\345\210\206\345\270\203\12\0"
	.align 8
.LC127:
	.ascii "4. \346\214\211\345\255\246\346\234\237\347\273\237\350\256\241\351\200\211\350\257\276\346\200\273\344\272\272\346\225\260\344\270\216\350\257\276\347\250\213\346\225\260\12\0"
.LC128:
	.ascii "5. \350\257\276\347\250\213\346\210\220\347\273\251\345\210\206\345\270\203\347\273\237\350\256\241\12\0"
.LC129:
	.ascii "\346\227\240\346\225\210\351\200\211\351\241\271\343\200\202\12\0"
	.text
	.def	statistics_menu;	.scl	3;	.type	32;	.endef
	.seh_proc	statistics_menu
statistics_menu:
.LFB4303:
	.loc 2 575 35
	.cfi_startproc
	pushq	%rbp
	.seh_pushreg	%rbp
	.cfi_def_cfa_offset 16
	.cfi_offset 6, -16
	movq	%rsp, %rbp
	.seh_setframe	%rbp, 0
	.cfi_def_cfa_register 6
	subq	$48, %rsp
	.seh_stackalloc	48
	.seh_endprologue
	.loc 2 576 9
	movq	g_container(%rip), %rax
	.loc 2 576 8
	testq	%rax, %rax
	je	.L191
	.loc 2 576 25 discriminator 1
	movq	g_iface(%rip), %rax
	.loc 2 576 22 discriminator 1
	testq	%rax, %rax
	jne	.L192
.L191:
	.loc 2 577 9
	leaq	.LC55(%rip), %rcx
	call	print_utf8_printf
	.loc 2 578 9
	jmp	.L190
.L192:
	.loc 2 582 5
	leaq	.LC123(%rip), %rcx
	call	print_utf8_printf
	.loc 2 583 5
	leaq	.LC124(%rip), %rcx
	call	print_utf8_printf
	.loc 2 584 5
	leaq	.LC125(%rip), %rcx
	call	print_utf8_printf
	.loc 2 585 5
	leaq	.LC126(%rip), %rcx
	call	print_utf8_printf
	.loc 2 586 5
	leaq	.LC127(%rip), %rcx
	call	print_utf8_printf
	.loc 2 587 5
	leaq	.LC128(%rip), %rcx
	call	print_utf8_printf
	.loc 2 589 14
	leaq	-5(%rbp), %rax
	movq	%rax, %r9
	movl	$0, %r8d
	movl	$0, %edx
	movl	$0, %ecx
	call	read_int
	movl	%eax, -4(%rbp)
	.loc 2 590 9
	movzbl	-5(%rbp), %eax
	xorl	$1, %eax
	.loc 2 590 8
	testb	%al, %al
	je	.L194
	.loc 2 591 9
	leaq	.LC30(%rip), %rcx
	call	print_utf8_printf
	.loc 2 592 9
	jmp	.L190
.L194:
	.loc 2 595 5
	cmpl	$5, -4(%rbp)
	ja	.L195
	movl	-4(%rbp), %eax
	leaq	0(,%rax,4), %rdx
	leaq	.L197(%rip), %rax
	movl	(%rdx,%rax), %eax
	cltq
	leaq	.L197(%rip), %rdx
	addq	%rdx, %rax
	jmp	*%rax
	.section .rdata,"dr"
	.align 4
.L197:
	.long	.L195-.L197
	.long	.L201-.L197
	.long	.L200-.L197
	.long	.L199-.L197
	.long	.L198-.L197
	.long	.L196-.L197
	.text
.L201:
	.loc 2 596 17
	movq	g_iface(%rip), %rdx
	movq	g_container(%rip), %rax
	movl	$50, %r8d
	movq	%rax, %rcx
	call	stat_course_enrollment
	.loc 2 596 9
	jmp	.L190
.L200:
	.loc 2 597 17
	movq	g_iface(%rip), %rdx
	movq	g_container(%rip), %rax
	movq	%rax, %rcx
	call	stat_student_credits
	.loc 2 597 9
	jmp	.L190
.L199:
	.loc 2 598 17
	movq	g_iface(%rip), %rdx
	movq	g_container(%rip), %rax
	movq	%rax, %rcx
	call	stat_college_distribution
	.loc 2 598 9
	jmp	.L190
.L198:
	.loc 2 599 17
	movq	g_iface(%rip), %rdx
	movq	g_container(%rip), %rax
	movq	%rax, %rcx
	call	stat_semester_trend
	.loc 2 599 9
	jmp	.L190
.L196:
	.loc 2 600 17
	movq	g_iface(%rip), %rdx
	movq	g_container(%rip), %rax
	movq	%rax, %rcx
	call	stat_score_distribution
	.loc 2 600 9
	jmp	.L190
.L195:
	.loc 2 601 18
	leaq	.LC129(%rip), %rcx
	call	print_utf8_printf
	nop
.L190:
	.loc 2 603 1
	addq	$48, %rsp
	popq	%rbp
	.cfi_restore 6
	.cfi_def_cfa 7, 8
	ret
	.cfi_endproc
.LFE4303:
	.seh_endproc
	.section .rdata,"dr"
.LC130:
	.ascii "data/generated_100.csv\0"
.LC131:
	.ascii "data/generated_1000.csv\0"
.LC132:
	.ascii "data/generated_10000.csv\0"
	.text
	.def	performance_menu;	.scl	3;	.type	32;	.endef
	.seh_proc	performance_menu
performance_menu:
.LFB4304:
	.loc 2 605 36
	.cfi_startproc
	pushq	%rbp
	.seh_pushreg	%rbp
	.cfi_def_cfa_offset 16
	.cfi_offset 6, -16
	movq	%rsp, %rbp
	.seh_setframe	%rbp, 0
	.cfi_def_cfa_register 6
	subq	$64, %rsp
	.seh_stackalloc	64
	.seh_endprologue
	.loc 2 606 17
	leaq	.LC130(%rip), %rax
	movq	%rax, -32(%rbp)
	leaq	.LC131(%rip), %rax
	movq	%rax, -24(%rbp)
	leaq	.LC132(%rip), %rax
	movq	%rax, -16(%rbp)
	.loc 2 611 5
	leaq	-32(%rbp), %rax
	movq	%rax, %rcx
	call	run_performance_comparison
	.loc 2 612 1
	nop
	addq	$64, %rsp
	popq	%rbp
	.cfi_restore 6
	.cfi_def_cfa 7, 8
	ret
	.cfi_endproc
.LFE4304:
	.seh_endproc
.Letext0:
	.file 3 "C:/mingw64/x86_64-w64-mingw32/include/crtdefs.h"
	.file 4 "C:/mingw64/x86_64-w64-mingw32/include/locale.h"
	.file 5 "C:/mingw64/x86_64-w64-mingw32/include/ctype.h"
	.file 6 "C:/mingw64/x86_64-w64-mingw32/include/stdlib.h"
	.file 7 "C:/mingw64/x86_64-w64-mingw32/include/malloc.h"
	.file 8 "C:/mingw64/x86_64-w64-mingw32/include/time.h"
	.file 9 "C:/mingw64/x86_64-w64-mingw32/include/excpt.h"
	.file 10 "C:/mingw64/x86_64-w64-mingw32/include/minwindef.h"
	.file 11 "C:/mingw64/x86_64-w64-mingw32/include/guiddef.h"
	.file 12 "C:/mingw64/x86_64-w64-mingw32/include/winnt.h"
	.file 13 "C:/mingw64/x86_64-w64-mingw32/include/rpcdce.h"
	.file 14 "C:/mingw64/x86_64-w64-mingw32/include/wtypesbase.h"
	.file 15 "C:/mingw64/x86_64-w64-mingw32/include/unknwnbase.h"
	.file 16 "C:/mingw64/x86_64-w64-mingw32/include/objidlbase.h"
	.file 17 "C:/mingw64/x86_64-w64-mingw32/include/cguid.h"
	.file 18 "C:/mingw64/x86_64-w64-mingw32/include/wtypes.h"
	.file 19 "C:/mingw64/x86_64-w64-mingw32/include/combaseapi.h"
	.file 20 "C:/mingw64/x86_64-w64-mingw32/include/objidl.h"
	.file 21 "C:/mingw64/x86_64-w64-mingw32/include/oleidl.h"
	.file 22 "C:/mingw64/x86_64-w64-mingw32/include/servprov.h"
	.file 23 "C:/mingw64/x86_64-w64-mingw32/include/oaidl.h"
	.file 24 "C:/mingw64/x86_64-w64-mingw32/include/msxml.h"
	.file 25 "C:/mingw64/x86_64-w64-mingw32/include/urlmon.h"
	.file 26 "C:/mingw64/x86_64-w64-mingw32/include/propidl.h"
	.file 27 "C:/mingw64/x86_64-w64-mingw32/include/oleauto.h"
	.file 28 "C:/mingw64/x86_64-w64-mingw32/include/winioctl.h"
	.file 29 "C:/mingw64/x86_64-w64-mingw32/include/winsmcrd.h"
	.file 30 "C:/mingw64/x86_64-w64-mingw32/include/winscard.h"
	.file 31 "C:/mingw64/x86_64-w64-mingw32/include/commdlg.h"
	.file 32 "src/../include/common.h"
	.file 33 "<built-in>"